(dp0
S'cookies'
p1
(dp2
S'wxloadtime'
p3
S'1502931711_expired'
p4
sS'webwx_data_ticket'
p5
S'gScCqu0BXy9XcH80asi/Cfdb'
p6
sS'wxuin'
p7
S'547102516'
p8
sS'login_frequency'
p9
S'2'
p10
sS'MM_WX_NOTIFY_STATE'
p11
S'1'
p12
sS'MM_WX_SOUND_STATE'
p13
g12
sS'webwx_auth_ticket'
p14
S'CIsBENOy4dwFGoABJ+bau7gK92vUHr+KS+QQAh7FRi0nM5piqgKXABa0aDwbB7pt4VxKmDYsHX3D+uQtSN1+4FzJyDvOCGpCgcCDrkA2WFuYkUiNfiLIHlEuWyGs37DzfKQ0VNqqRG2pRVMkkBZrYOI+fKT6dgmAilM031zrtdQPBD2zIUAf+r4pyAE='
p15
sS'last_wxuin'
p16
S'547102516'
p17
sS'webwxuvid'
p18
S'7858519452ac080615f00594b5ae6eae245ce27119e1c235d7da540400554b966346b76aa328e239fa46f2651c6399b6'
p19
sS'wxpluginkey'
p20
S'1503362053'
p21
sS'wxsid'
p22
S'vQtcGA91hSDHXiPN'
p23
sS'mm_lang'
p24
S'zh_CN'
p25
ssS'version'
p26
S'1.3.8'
p27
sS'storage'
p28
(dp29
S'userName'
p30
V@6f349e5e95aa664346ae4ba60a8ba0ce29f0f91689620d4d0efa6f881919fd99
p31
sS'lastInputUserName'
p32
NsS'memberList'
p33
ccopy_reg
_reconstructor
p34
(cstorage.templates
ContactList
p35
c__builtin__
list
p36
(lp37
g34
(cstorage.templates
User
p38
c__builtin__
dict
p39
(dp40
S'UserName'
p41
g31
sS'City'
p42
S''
p43
sS'DisplayName'
p44
g43
sS'UniFriend'
p45
I0
sS'OwnerUin'
p46
I0
sS'MemberList'
p47
g34
(g35
g36
(lp48
tp49
Rp50
I1
bsS'PYQuanPin'
p51
V
p52
sS'RemarkPYInitial'
p53
g52
sS'Uin'
p54
I547102516
sS'AppAccountFlag'
p55
I0
sS'VerifyFlag'
p56
I0
sS'Province'
p57
g43
sS'KeyWord'
p58
g43
sS'RemarkName'
p59
g52
sS'PYInitial'
p60
g52
sS'ChatRoomId'
p61
I0
sS'HideInputBarFlag'
p62
I0
sVHeadImgFlag
p63
I1
sS'EncryChatRoomId'
p64
g43
sS'AttrStatus'
p65
I0
sS'SnsFlag'
p66
I0
sS'MemberCount'
p67
I0
sVWebWxPluginSwitch
p68
I0
sS'Alias'
p69
g43
sS'Signature'
p70
g52
sS'ContactFlag'
p71
I0
sS'NickName'
p72
V\u738b\u8005\u5c0f\u673a
p73
sS'RemarkPYQuanPin'
p74
g52
sS'HeadImgUrl'
p75
V/cgi-bin/mmwebwx-bin/webwxgeticon?seq=538031821&username=@6f349e5e95aa664346ae4ba60a8ba0ce29f0f91689620d4d0efa6f881919fd99&skey=@crypt_f18ebe9c_970944b1cd5666b9e429e75bd09969e5
p76
sS'Sex'
p77
I0
sS'StarFriend'
p78
I0
sS'Statues'
p79
I0
stp80
Rp81
I1
bag34
(g38
g39
(dp82
VUserName
p83
V@f30e206223a566b7d86f3ecbc6839a98834e3a04a7df0e6324015b24d1c1767f
p84
sVCity
p85
g52
sVSnsFlag
p86
I49
sVDisplayName
p87
g52
sVUniFriend
p88
I0
sVMemberCount
p89
I0
sVOwnerUin
p90
I0
sVMemberList
p91
g50
sVAlias
p92
g52
sVPYQuanPin
p93
Vwangze
p94
sVSignature
p95
g52
sVRemarkPYInitial
p96
VWANG15858285967
p97
sVContactFlag
p98
I3
sVUin
p99
I0
sVNickName
p100
V\u738b\u6cfd
p101
sVAppAccountFlag
p102
I0
sVVerifyFlag
p103
I0
sVRemarkPYQuanPin
p104
Vwang15858285967
p105
sVHeadImgUrl
p106
V/cgi-bin/mmwebwx-bin/webwxgeticon?seq=661243204&username=@f30e206223a566b7d86f3ecbc6839a98834e3a04a7df0e6324015b24d1c1767f&skey=@crypt_f18ebe9c_970944b1cd5666b9e429e75bd09969e5
p107
sVKeyWord
p108
g52
sVProvince
p109
g52
sVPYInitial
p110
VWZ
p111
sVRemarkName
p112
Vwang15858285967
p113
sVStarFriend
p114
I0
sVSex
p115
I0
sVIsOwner
p116
I0
sVHideInputBarFlag
p117
I0
sVChatRoomId
p118
I0
sVEncryChatRoomId
p119
g52
sVAttrStatus
p120
I98405
sVStatues
p121
I0
stp122
Rp123
I1
bag34
(g38
g39
(dp124
VUserName
p125
V@c1485fb4a7cba3ab2c161a6cb26373fed7565cb2c0368aeb975e868543102d09
p126
sVCity
p127
V\u676d\u5dde
p128
sVDisplayName
p129
g52
sVUniFriend
p130
I0
sVMemberList
p131
g50
sVPYQuanPin
p132
Vxiaojiang
p133
sVRemarkPYInitial
p134
g52
sVUin
p135
I0
sVAppAccountFlag
p136
I0
sVVerifyFlag
p137
I0
sVProvince
p138
V\u6d59\u6c5f
p139
sVKeyWord
p140
g52
sVRemarkName
p141
g52
sVPYInitial
p142
VXJ
p143
sVChatRoomId
p144
I0
sVIsOwner
p145
I0
sVContactType
p146
I0
sVHideInputBarFlag
p147
I0
sVEncryChatRoomId
p148
g52
sVAttrStatus
p149
I16886269
sVSnsFlag
p150
I1
sVMemberCount
p151
I0
sVOwnerUin
p152
I0
sVAlias
p153
g52
sVSignature
p154
V\u65f6\u95f4\u5bf9\u4e86\uff0c\u5c31\u53d1\u5149\u53d1\u70ed\u5427
p155
sVContactFlag
p156
I3
sVNickName
p157
V\u5c0f\u59dc
p158
sVChatRoomOwner
p159
g52
sVRemarkPYQuanPin
p160
g52
sVHeadImgUrl
p161
V/cgi-bin/mmwebwx-bin/webwxgeticon?seq=661244109&username=@c1485fb4a7cba3ab2c161a6cb26373fed7565cb2c0368aeb975e868543102d09&skey=@crypt_f18ebe9c_970944b1cd5666b9e429e75bd09969e5
p162
sVSex
p163
I1
sVStarFriend
p164
I0
sVStatues
p165
I0
sVHeadImgUpdateFlag
p166
I1
stp167
Rp168
I1
bag34
(g38
g39
(dp169
VUserName
p170
V@ef757057df05960c686f954c593d0680de1d495da5bec93c211645fceaeaf340
p171
sVCity
p172
V\u671d\u9633
p173
sVSnsFlag
p174
I1
sVDisplayName
p175
g52
sVUniFriend
p176
I0
sVMemberCount
p177
I0
sVOwnerUin
p178
I0
sVMemberList
p179
g50
sVAlias
p180
g52
sVPYQuanPin
p181
Vwangzhezhuanjikongjie
p182
sVSignature
p183
g52
sVRemarkPYInitial
p184
g52
sVContactFlag
p185
I3
sVUin
p186
I0
sVNickName
p187
V\u738b\u8005\u4e13\u673a\u7a7a\u59d0
p188
sVAppAccountFlag
p189
I0
sVVerifyFlag
p190
I0
sVRemarkPYQuanPin
p191
g52
sVHeadImgUrl
p192
V/cgi-bin/mmwebwx-bin/webwxgeticon?seq=661241781&username=@ef757057df05960c686f954c593d0680de1d495da5bec93c211645fceaeaf340&skey=@crypt_f18ebe9c_970944b1cd5666b9e429e75bd09969e5
p193
sVKeyWord
p194
g52
sVProvince
p195
V\u5317\u4eac
p196
sVPYInitial
p197
VWZZJKJ
p198
sVRemarkName
p199
g52
sVStarFriend
p200
I0
sVSex
p201
I1
sVIsOwner
p202
I0
sVHideInputBarFlag
p203
I0
sVChatRoomId
p204
I0
sVEncryChatRoomId
p205
g52
sVAttrStatus
p206
I2147487781
sVStatues
p207
I0
stp208
Rp209
I1
bag34
(g38
g39
(dp210
VUserName
p211
V@e54f9f22648c5c89ae7df2c3615e060b000f81177c6bcee23ddc25f557ec8da1
p212
sVCity
p213
V\u676d\u5dde
p214
sVSnsFlag
p215
I1
sVDisplayName
p216
g52
sVUniFriend
p217
I0
sVMemberCount
p218
I0
sVOwnerUin
p219
I0
sVMemberList
p220
g50
sVAlias
p221
g52
sVPYQuanPin
p222
Vwangzhezhuanjikongshao
p223
sVSignature
p224
V\u5171\u4eab\u7ba1\u5bb6\uff0c\u627e\u5230\u5c5e\u4e8e\u81ea\u5df1\u7684\u4eba\u8109\u5708\u5b50
p225
sVRemarkPYInitial
p226
g52
sVContactFlag
p227
I3
sVUin
p228
I0
sVNickName
p229
V\u738b\u8005\u4e13\u673a \u7a7a\u5c11
p230
sVAppAccountFlag
p231
I0
sVVerifyFlag
p232
I0
sVRemarkPYQuanPin
p233
g52
sVHeadImgUrl
p234
V/cgi-bin/mmwebwx-bin/webwxgeticon?seq=661242024&username=@e54f9f22648c5c89ae7df2c3615e060b000f81177c6bcee23ddc25f557ec8da1&skey=@crypt_f18ebe9c_970944b1cd5666b9e429e75bd09969e5
p235
sVKeyWord
p236
g52
sVProvince
p237
V\u6d59\u6c5f
p238
sVPYInitial
p239
VWZZJKS
p240
sVRemarkName
p241
g52
sVStarFriend
p242
I0
sVSex
p243
I1
sVIsOwner
p244
I0
sVHideInputBarFlag
p245
I0
sVChatRoomId
p246
I0
sVEncryChatRoomId
p247
g52
sVAttrStatus
p248
I17010693
sVStatues
p249
I0
stp250
Rp251
I1
bag34
(g38
g39
(dp252
VUserName
p253
V@50b66a52d45296f6c5a5fd6f76c79567df33d9fce3bd2130292c3d3dba06c53a
p254
sVCity
p255
V\u5e7f\u5dde
p256
sVSnsFlag
p257
I1
sVDisplayName
p258
g52
sVUniFriend
p259
I0
sVMemberCount
p260
I0
sVOwnerUin
p261
I0
sVMemberList
p262
g50
sVAlias
p263
g52
sVPYQuanPin
p264
Vwangzhezhuanjikefu
p265
sVSignature
p266
V\u738b\u8005\u4e13\u4eab\u670d\u52a1\u8bf7\u79c1\u804a\u6211
p267
sVRemarkPYInitial
p268
g52
sVContactFlag
p269
I3
sVUin
p270
I0
sVNickName
p271
V\u738b\u8005\u4e13\u673a\u5ba2\u670d
p272
sVAppAccountFlag
p273
I0
sVVerifyFlag
p274
I0
sVRemarkPYQuanPin
p275
g52
sVHeadImgUrl
p276
V/cgi-bin/mmwebwx-bin/webwxgeticon?seq=661242287&username=@50b66a52d45296f6c5a5fd6f76c79567df33d9fce3bd2130292c3d3dba06c53a&skey=@crypt_f18ebe9c_970944b1cd5666b9e429e75bd09969e5
p277
sVKeyWord
p278
g52
sVProvince
p279
V\u5e7f\u4e1c
p280
sVPYInitial
p281
VWZZJKF
p282
sVRemarkName
p283
g52
sVStarFriend
p284
I0
sVSex
p285
I2
sVIsOwner
p286
I0
sVHideInputBarFlag
p287
I0
sVChatRoomId
p288
I0
sVEncryChatRoomId
p289
g52
sVAttrStatus
p290
I233509
sVStatues
p291
I0
stp292
Rp293
I1
bag34
(g38
g39
(dp294
VUserName
p295
V@2419faeaf9b97b33ab3d58f5f3d84f3349f6d2ede6808f8ce7c0dd2c0e35f77d
p296
sVCity
p297
g52
sVSnsFlag
p298
I49
sVDisplayName
p299
g52
sVUniFriend
p300
I0
sVMemberCount
p301
I0
sVOwnerUin
p302
I0
sVMemberList
p303
g50
sVAlias
p304
g52
sVPYQuanPin
p305
Vzhangjianfeng
p306
sVSignature
p307
V\u53bb\u4e91\u5357
p308
sVRemarkPYInitial
p309
g52
sVContactFlag
p310
I65539
sVUin
p311
I0
sVNickName
p312
V\u7ae0\u5efa\u70fd
p313
sVAppAccountFlag
p314
I0
sVVerifyFlag
p315
I0
sVRemarkPYQuanPin
p316
g52
sVHeadImgUrl
p317
V/cgi-bin/mmwebwx-bin/webwxgeticon?seq=661241774&username=@2419faeaf9b97b33ab3d58f5f3d84f3349f6d2ede6808f8ce7c0dd2c0e35f77d&skey=@crypt_f18ebe9c_970944b1cd5666b9e429e75bd09969e5
p318
sVKeyWord
p319
Vzha
p320
sVProvince
p321
g52
sVPYInitial
p322
VZJF
p323
sVRemarkName
p324
g52
sVStarFriend
p325
I0
sVSex
p326
I1
sVIsOwner
p327
I0
sVHideInputBarFlag
p328
I0
sVChatRoomId
p329
I0
sVEncryChatRoomId
p330
g52
sVAttrStatus
p331
I111719
sVStatues
p332
I0
stp333
Rp334
I1
bag34
(g38
g39
(dp335
VUserName
p336
V@72f41481acc11a916eb21c98439217e2
p337
sVCity
p338
V\u6d77\u6dc0
p339
sVSnsFlag
p340
I177
sVDisplayName
p341
g52
sVUniFriend
p342
I0
sVMemberCount
p343
I0
sVOwnerUin
p344
I0
sVMemberList
p345
g50
sVAlias
p346
g52
sVPYQuanPin
p347
VlaoK
p348
sVSignature
p349
V\u6316\u4e2a\u841d\u535c\u5751\u57cb\u841d\u535c......
p350
sVRemarkPYInitial
p351
g52
sVContactFlag
p352
I3
sVUin
p353
I0
sVNickName
p354
V\u8001K
p355
sVAppAccountFlag
p356
I0
sVVerifyFlag
p357
I0
sVRemarkPYQuanPin
p358
g52
sVHeadImgUrl
p359
V/cgi-bin/mmwebwx-bin/webwxgeticon?seq=654710029&username=@72f41481acc11a916eb21c98439217e2&skey=@crypt_f18ebe9c_970944b1cd5666b9e429e75bd09969e5
p360
sVKeyWord
p361
Vfla
p362
sVProvince
p363
V\u5317\u4eac
p364
sVPYInitial
p365
VLK
p366
sVRemarkName
p367
g52
sVStarFriend
p368
I0
sVSex
p369
I1
sVIsOwner
p370
I0
sVHideInputBarFlag
p371
I0
sVChatRoomId
p372
I0
sVEncryChatRoomId
p373
g52
sVAttrStatus
p374
I4433959
sVStatues
p375
I0
stp376
Rp377
I1
bag34
(g38
g39
(dp378
VUserName
p379
V@9d6c422b278745266e75021398305c986ca230336b01c19a1bca54deb2f42a94
p380
sVCity
p381
V\u676d\u5dde
p382
sVSnsFlag
p383
I17
sVDisplayName
p384
g52
sVUniFriend
p385
I0
sVMemberCount
p386
I0
sVOwnerUin
p387
I0
sVMemberList
p388
g50
sVAlias
p389
g52
sVPYQuanPin
p390
Vbiaobiao
p391
sVSignature
p392
V\u4f60\u82e5\u76db\u5f00\uff0c\u6e05\u98ce\u81ea\u6765\u3002
p393
sVRemarkPYInitial
p394
VERWIN
p395
sVContactFlag
p396
I1
sVUin
p397
I0
sVNickName
p398
V\u6807\u6807
p399
sVAppAccountFlag
p400
I0
sVVerifyFlag
p401
I0
sVRemarkPYQuanPin
p402
VErwin
p403
sVHeadImgUrl
p404
V/cgi-bin/mmwebwx-bin/webwxgeticon?seq=661242558&username=@9d6c422b278745266e75021398305c986ca230336b01c19a1bca54deb2f42a94&skey=@crypt_f18ebe9c_970944b1cd5666b9e429e75bd09969e5
p405
sVKeyWord
p406
g52
sVProvince
p407
V\u6d59\u6c5f
p408
sVPYInitial
p409
VBB
p410
sVRemarkName
p411
VErwin
p412
sVStarFriend
p413
I0
sVSex
p414
I1
sVIsOwner
p415
I0
sVHideInputBarFlag
p416
I0
sVChatRoomId
p417
I0
sVEncryChatRoomId
p418
g52
sVAttrStatus
p419
I68645
sVStatues
p420
I0
stp421
Rp422
I1
bag34
(g38
g39
(dp423
VUserName
p424
V@64b6b2e870eeaaab5e1193951bc08faacbc9920259c16f0fb7aac486bd3d8864
p425
sVCity
p426
g52
sVSnsFlag
p427
I17
sVDisplayName
p428
g52
sVUniFriend
p429
I0
sVMemberCount
p430
I0
sVOwnerUin
p431
I0
sVMemberList
p432
g50
sVAlias
p433
g52
sVPYQuanPin
p434
Vyunong
p435
sVSignature
p436
V\u7b49\u98ce\u6765
p437
sVRemarkPYInitial
p438
VHENGSHAO123456
p439
sVContactFlag
p440
I3
sVUin
p441
I0
sVNickName
p442
V\u96e8\u519c
p443
sVAppAccountFlag
p444
I0
sVVerifyFlag
p445
I0
sVRemarkPYQuanPin
p446
Vhengshao123456
p447
sVHeadImgUrl
p448
V/cgi-bin/mmwebwx-bin/webwxgeticon?seq=661241778&username=@64b6b2e870eeaaab5e1193951bc08faacbc9920259c16f0fb7aac486bd3d8864&skey=@crypt_f18ebe9c_970944b1cd5666b9e429e75bd09969e5
p449
sVKeyWord
p450
g52
sVProvince
p451
g52
sVPYInitial
p452
VYN
p453
sVRemarkName
p454
Vhengshao123456
p455
sVStarFriend
p456
I0
sVSex
p457
I1
sVIsOwner
p458
I0
sVHideInputBarFlag
p459
I0
sVChatRoomId
p460
I0
sVEncryChatRoomId
p461
g52
sVAttrStatus
p462
I104485
sVStatues
p463
I0
stp464
Rp465
I1
bag34
(g38
g39
(dp466
VUserName
p467
V@5469ba36f90e9ccdd611422a6c102dbb
p468
sVCity
p469
V\u592a\u539f
p470
sVSnsFlag
p471
I1
sVMemberCount
p472
I0
sVMemberList
p473
g50
sVAlias
p474
g52
sVSignature
p475
g52
sVContactFlag
p476
I3
sVNickName
p477
Vzang
p478
sVHideInputBarFlag
p479
I0
sVVerifyFlag
p480
I0
sVProvince
p481
V\u5c71\u897f
p482
sVStatues
p483
I0
sVKeyWord
p484
Vzyx
p485
sVRemarkName
p486
g52
sVHeadImgUrl
p487
V/cgi-bin/mmwebwx-bin/webwxgeticon?seq=661243974&username=@5469ba36f90e9ccdd611422a6c102dbb&skey=@crypt_f18ebe9c_970944b1cd5666b9e429e75bd09969e5
p488
sVSex
p489
I1
sVContactType
p490
I0
sVChatRoomOwner
p491
g52
sVAttrStatus
p492
I2147602919
sVHeadImgUpdateFlag
p493
I1
stp494
Rp495
I1
bag34
(g38
g39
(dp496
VUserName
p497
V@5ee1d813e1adce4655713b6a026af74c
p498
sVCity
p499
V\u8302\u540d
p500
sVSnsFlag
p501
I1
sVMemberCount
p502
I0
sVMemberList
p503
g50
sVAlias
p504
g52
sVSignature
p505
V\u28a9\u28bb\u28ce
p506
sVHeadImgUrl
p507
V/cgi-bin/mmwebwx-bin/webwxgeticon?seq=661243965&username=@5ee1d813e1adce4655713b6a026af74c&skey=@crypt_f18ebe9c_970944b1cd5666b9e429e75bd09969e5
p508
sVNickName
p509
Vbo\u7af6
p510
sVHideInputBarFlag
p511
I0
sVVerifyFlag
p512
I0
sVProvince
p513
V\u5e7f\u4e1c
p514
sVStatues
p515
I0
sVKeyWord
p516
Vlbj
p517
sVRemarkName
p518
Vll-qp-ll
p519
sVContactFlag
p520
I3
sVSex
p521
I1
sVContactType
p522
I0
sVChatRoomOwner
p523
g52
sVAttrStatus
p524
I2185482343
sVHeadImgUpdateFlag
p525
I1
stp526
Rp527
I1
bag34
(g38
g39
(dp528
VUserName
p529
V@c46cadfc5f1ed0256ad3f41f56cf50f1
p530
sVCity
p531
V\u4f5b\u5c71
p532
sVSnsFlag
p533
I1
sVMemberCount
p534
I0
sVMemberList
p535
g50
sVAlias
p536
g52
sVSignature
p537
g52
sVHeadImgUrl
p538
V/cgi-bin/mmwebwx-bin/webwxgeticon?seq=661244059&username=@c46cadfc5f1ed0256ad3f41f56cf50f1&skey=@crypt_f18ebe9c_970944b1cd5666b9e429e75bd09969e5
p539
sVNickName
p540
Vzxz_zxz
p541
sVHideInputBarFlag
p542
I0
sVVerifyFlag
p543
I0
sVProvince
p544
V\u5e7f\u4e1c
p545
sVStatues
p546
I0
sVKeyWord
p547
Vwsa
p548
sVRemarkName
p549
g52
sVContactFlag
p550
I3
sVSex
p551
I1
sVContactType
p552
I0
sVChatRoomOwner
p553
g52
sVAttrStatus
p554
I102503
sVHeadImgUpdateFlag
p555
I1
stp556
Rp557
I1
bag34
(g38
g39
(dp558
VUserName
p559
V@7d275cf8845b6a7cfe9e19cc3b2b4cd2
p560
sVCity
p561
V\u4e0d\u4e39
p562
sVSnsFlag
p563
I1
sVMemberCount
p564
I0
sVMemberList
p565
g50
sVAlias
p566
g52
sVSignature
p567
g52
sVHeadImgUrl
p568
V/cgi-bin/mmwebwx-bin/webwxgeticon?seq=661244080&username=@7d275cf8845b6a7cfe9e19cc3b2b4cd2&skey=@crypt_f18ebe9c_970944b1cd5666b9e429e75bd09969e5
p569
sVNickName
p570
V\u58a8\u82b1\u4e36
p571
sVHideInputBarFlag
p572
I0
sVVerifyFlag
p573
I0
sVProvince
p574
V\u5176\u4ed6
p575
sVStatues
p576
I0
sVKeyWord
p577
Vshu
p578
sVRemarkName
p579
V-qin2597758
p580
sVContactFlag
p581
I3
sVSex
p582
I1
sVContactType
p583
I0
sVChatRoomOwner
p584
g52
sVAttrStatus
p585
I102947
sVHeadImgUpdateFlag
p586
I1
stp587
Rp588
I1
bag34
(g38
g39
(dp589
VUserName
p590
V@d173012abd4e7c917761430ca4f2fabeb5f3b4e5e35fdf523961e2895d4711db
p591
sVCity
p592
V\u5df4\u62ff\u9a6c
p593
sVSnsFlag
p594
I1
sVMemberCount
p595
I0
sVMemberList
p596
g50
sVAlias
p597
g52
sVSignature
p598
g52
sVHeadImgUrl
p599
V/cgi-bin/mmwebwx-bin/webwxgeticon?seq=661244075&username=@d173012abd4e7c917761430ca4f2fabeb5f3b4e5e35fdf523961e2895d4711db&skey=@crypt_f18ebe9c_970944b1cd5666b9e429e75bd09969e5
p600
sVNickName
p601
V\u73cd\u60dc\u3002
p602
sVHideInputBarFlag
p603
I0
sVVerifyFlag
p604
I0
sVProvince
p605
V\u5176\u4ed6
p606
sVStatues
p607
I0
sVKeyWord
p608
g52
sVRemarkName
p609
Vdongtaoweix
p610
sVContactFlag
p611
I3
sVSex
p612
I1
sVContactType
p613
I0
sVChatRoomOwner
p614
g52
sVAttrStatus
p615
I233509
sVHeadImgUpdateFlag
p616
I1
stp617
Rp618
I1
bag34
(g38
g39
(dp619
VUserName
p620
V@e49d059794455a0d5ee7bc6f664aecaf
p621
sVCity
p622
V\u97e9\u56fd
p623
sVSnsFlag
p624
I1
sVMemberCount
p625
I0
sVMemberList
p626
g50
sVAlias
p627
g52
sVSignature
p628
V\u4e00\u573a\u620f\uff0c\u4eba\u751f\u3002\u770b\u900f\u4e86\uff0c\u6211\u5c31\u662f\u4e3b\u89d2
p629
sVHeadImgUrl
p630
V/cgi-bin/mmwebwx-bin/webwxgeticon?seq=661244069&username=@e49d059794455a0d5ee7bc6f664aecaf&skey=@crypt_f18ebe9c_970944b1cd5666b9e429e75bd09969e5
p631
sVNickName
p632
V\u6709\u6545\u4e8b\u7684\u4eba
p633
sVHideInputBarFlag
p634
I0
sVVerifyFlag
p635
I0
sVProvince
p636
V\u5176\u4ed6
p637
sVStatues
p638
I0
sVKeyWord
p639
VQWE
p640
sVRemarkName
p641
VQWERTYASDF-
p642
sVContactFlag
p643
I3
sVSex
p644
I1
sVContactType
p645
I0
sVChatRoomOwner
p646
g52
sVAttrStatus
p647
I2147596391
sVHeadImgUpdateFlag
p648
I1
stp649
Rp650
I1
bag34
(g38
g39
(dp651
VUserName
p652
V@ede1531341a8fa79b5a676beca7f8ac8
p653
sVCity
p654
V\u91d1\u534e
p655
sVSnsFlag
p656
I1
sVMemberCount
p657
I0
sVMemberList
p658
g50
sVAlias
p659
g52
sVSignature
p660
V\u0f3a\u67e0<span class="emoji emoji1f341"></span>\u6aac\u0f3b \u968f\u6027\u5c31\u597d\uff0c\u957f\u4e0d\u5927\uff0c\u4eca\u5e74\u521a\u6ee118\uff0c\u5ba0\u4f60\u4e00\u751f
p661
sVHeadImgUrl
p662
V/cgi-bin/mmwebwx-bin/webwxgeticon?seq=661244064&username=@ede1531341a8fa79b5a676beca7f8ac8&skey=@crypt_f18ebe9c_970944b1cd5666b9e429e75bd09969e5
p663
sVNickName
p664
V\u8fc7\u96e8\u5929\u6674\u270c\u5ba0\u4f60\u4e00\u4e16
p665
sVHideInputBarFlag
p666
I0
sVVerifyFlag
p667
I0
sVProvince
p668
V\u6d59\u6c5f
p669
sVStatues
p670
I0
sVKeyWord
p671
Vyw_
p672
sVRemarkName
p673
Vyw_lang
p674
sVContactFlag
p675
I3
sVSex
p676
I1
sVContactType
p677
I0
sVChatRoomOwner
p678
g52
sVAttrStatus
p679
I2147623015
sVHeadImgUpdateFlag
p680
I1
stp681
Rp682
I1
bag34
(g38
g39
(dp683
VUserName
p684
V@822baf74d5b5b6971ccdd47dad11b8442ce489965c6d0babdba4dfa6cc28653c
p685
sVCity
p686
V\u5e7f\u5dde
p687
sVSnsFlag
p688
I1
sVMemberCount
p689
I0
sVMemberList
p690
g50
sVAlias
p691
g52
sVSignature
p692
V\u751f\u6d3b\u5982\u96e8 \u8981\u6491\u4f1e\u539f\u8c05
p693
sVHeadImgUrl
p694
V/cgi-bin/mmwebwx-bin/webwxgeticon?seq=661243978&username=@822baf74d5b5b6971ccdd47dad11b8442ce489965c6d0babdba4dfa6cc28653c&skey=@crypt_f18ebe9c_970944b1cd5666b9e429e75bd09969e5
p695
sVNickName
p696
V\u738b\u8005\u4e13\u673a \u7a7a\u5c116
p697
sVHideInputBarFlag
p698
I0
sVVerifyFlag
p699
I0
sVProvince
p700
V\u5e7f\u4e1c
p701
sVStatues
p702
I0
sVKeyWord
p703
g52
sVRemarkName
p704
VHU_562937368
p705
sVContactFlag
p706
I3
sVSex
p707
I1
sVContactType
p708
I0
sVChatRoomOwner
p709
g52
sVAttrStatus
p710
I233919
sVHeadImgUpdateFlag
p711
I1
stp712
Rp713
I1
bag34
(g38
g39
(dp714
VUserName
p715
V@32bc893f26eb0440125de52314e057b2
p716
sVCity
p717
g52
sVSnsFlag
p718
I1
sVMemberCount
p719
I0
sVMemberList
p720
g50
sVAlias
p721
g52
sVSignature
p722
V\u505a\u4eba\u8981\u4f4e\u8c03\uff0c\u505a\u4e8b\u8981\u9ad8\u8c03\u3002
p723
sVHeadImgUrl
p724
V/cgi-bin/mmwebwx-bin/webwxgeticon?seq=661244280&username=@32bc893f26eb0440125de52314e057b2&skey=@crypt_f18ebe9c_970944b1cd5666b9e429e75bd09969e5
p725
sVNickName
p726
V\u5c11\u5e05\U0001f48b \U0001f48b \U0001f48b
p727
sVHideInputBarFlag
p728
I0
sVVerifyFlag
p729
I0
sVProvince
p730
g52
sVStatues
p731
I0
sVKeyWord
p732
VXJX
p733
sVRemarkName
p734
VXJX__________
p735
sVContactFlag
p736
I1
sVSex
p737
I1
sVContactType
p738
I0
sVChatRoomOwner
p739
g52
sVAttrStatus
p740
I33658213
sVHeadImgUpdateFlag
p741
I1
stp742
Rp743
I1
bag34
(g38
g39
(dp744
VUserName
p745
V@e86ef101301f6f9258d27eede2f2c739d2fb396ce0d451472cc4a206d062ecc8
p746
sVCity
p747
V\u51b0\u5c9b
p748
sVSnsFlag
p749
I1
sVMemberCount
p750
I0
sVMemberList
p751
g50
sVAlias
p752
g52
sVSignature
p753
g52
sVHeadImgUrl
p754
V/cgi-bin/mmwebwx-bin/webwxgeticon?seq=661244442&username=@e86ef101301f6f9258d27eede2f2c739d2fb396ce0d451472cc4a206d062ecc8&skey=@crypt_f18ebe9c_970944b1cd5666b9e429e75bd09969e5
p755
sVNickName
p756
Vestay
p757
sVHideInputBarFlag
p758
I0
sVVerifyFlag
p759
I0
sVProvince
p760
V\u5176\u4ed6
p761
sVStatues
p762
I0
sVKeyWord
p763
g52
sVRemarkName
p764
Va1278001617
p765
sVContactFlag
p766
I1
sVSex
p767
I1
sVContactType
p768
I0
sVChatRoomOwner
p769
g52
sVAttrStatus
p770
I4197
sVHeadImgUpdateFlag
p771
I1
stp772
Rp773
I1
bag34
(g38
g39
(dp774
VUserName
p775
V@909ad10ada8a828f5bf40289395a0192b87802eb35589a322397afa3a24277c8
p776
sVCity
p777
V\u5965\u5730\u5229
p778
sVSnsFlag
p779
I1
sVMemberCount
p780
I0
sVMemberList
p781
g50
sVAlias
p782
g52
sVSignature
p783
V\u6211\u7231\u4f60
p784
sVHeadImgUrl
p785
V/cgi-bin/mmwebwx-bin/webwxgeticon?seq=661244480&username=@909ad10ada8a828f5bf40289395a0192b87802eb35589a322397afa3a24277c8&skey=@crypt_f18ebe9c_970944b1cd5666b9e429e75bd09969e5
p786
sVNickName
p787
V\u7f8e\u5948\U0001f984
p788
sVHideInputBarFlag
p789
I0
sVVerifyFlag
p790
I0
sVProvince
p791
V\u5176\u4ed6
p792
sVStatues
p793
I0
sVKeyWord
p794
g52
sVRemarkName
p795
Vy476678471
p796
sVContactFlag
p797
I3
sVSex
p798
I2
sVContactType
p799
I0
sVChatRoomOwner
p800
g52
sVAttrStatus
p801
I2147717221
sVHeadImgUpdateFlag
p802
I1
stp803
Rp804
I1
bag34
(g38
g39
(dp805
VUserName
p806
V@a808346983ecb73d76a40ea78eac2d10b601b200d95d43fcf8bfe7be385ff52e
p807
sVCity
p808
V\u76f4\u5e03\u7f57\u9640
p809
sVSnsFlag
p810
I1
sVMemberCount
p811
I0
sVMemberList
p812
g50
sVAlias
p813
g52
sVSignature
p814
V\u81ea\u53e4\u6df1\u60c5\u7559\u4e0d\u4f4f\uff0c\u603b\u662f\u5957\u8def\u5f97\u4eba\u5fc3\u3002
p815
sVHeadImgUrl
p816
V/cgi-bin/mmwebwx-bin/webwxgeticon?seq=661244491&username=@a808346983ecb73d76a40ea78eac2d10b601b200d95d43fcf8bfe7be385ff52e&skey=@crypt_f18ebe9c_970944b1cd5666b9e429e75bd09969e5
p817
sVNickName
p818
VA  \u597d\u4e8b\u591a\u78e8. \u0e51
p819
sVHideInputBarFlag
p820
I0
sVVerifyFlag
p821
I0
sVProvince
p822
V\u5176\u4ed6
p823
sVStatues
p824
I0
sVKeyWord
p825
g52
sVRemarkName
p826
V1445227780
p827
sVContactFlag
p828
I3
sVSex
p829
I1
sVContactType
p830
I0
sVChatRoomOwner
p831
g52
sVAttrStatus
p832
I16879717
sVHeadImgUpdateFlag
p833
I1
stp834
Rp835
I1
bag34
(g38
g39
(dp836
VUserName
p837
V@7744a76381f9e2e786bb0f8570763b565ab89c1c86e36ca999225e0c71701b03
p838
sVCity
p839
V\u5e7f\u5dde
p840
sVSnsFlag
p841
I1
sVMemberCount
p842
I0
sVMemberList
p843
g50
sVAlias
p844
g52
sVSignature
p845
g52
sVHeadImgUrl
p846
V/cgi-bin/mmwebwx-bin/webwxgeticon?seq=661244499&username=@7744a76381f9e2e786bb0f8570763b565ab89c1c86e36ca999225e0c71701b03&skey=@crypt_f18ebe9c_970944b1cd5666b9e429e75bd09969e5
p847
sVNickName
p848
V\u5c0f\u5a01
p849
sVHideInputBarFlag
p850
I0
sVVerifyFlag
p851
I0
sVProvince
p852
V\u5e7f\u4e1c
p853
sVStatues
p854
I0
sVKeyWord
p855
g52
sVRemarkName
p856
V13710692319
p857
sVContactFlag
p858
I3
sVSex
p859
I1
sVContactType
p860
I0
sVChatRoomOwner
p861
g52
sVAttrStatus
p862
I103103
sVHeadImgUpdateFlag
p863
I1
stp864
Rp865
I1
batp866
Rp867
I1
bsS'chatroomList'
p868
g34
(g35
g36
(lp869
g34
(cstorage.templates
Chatroom
p870
g39
(dp871
VUserName
p872
V@@49c2d70f7508ed68d2207ed23cbed3d87d1231be9ed3331dd67ee19bdfe860d3
p873
sVCity
p874
g52
sVDisplayName
p875
g52
sVUniFriend
p876
I0
sS'Self'
p877
g34
(cstorage.templates
ChatroomMember
p878
g39
(dp879
VUserName
p880
V@6f349e5e95aa664346ae4ba60a8ba0ce29f0f91689620d4d0efa6f881919fd99
p881
sVRemarkPYQuanPin
p882
g52
sVDisplayName
p883
g52
sVKeyWord
p884
g52
sVPYInitial
p885
g52
sVUin
p886
I0
sg47
g50
sVRemarkPYInitial
p887
g52
sVPYQuanPin
p888
g52
sVMemberStatus
p889
I0
sVNickName
p890
V\u738b\u8005\u5c0f\u673a
p891
sVAttrStatus
p892
I234021
stp893
Rp894
I1
bsVMemberList
p895
g34
(g35
g36
(lp896
g34
(g878
g39
(dp897
VUserName
p898
V@f30e206223a566b7d86f3ecbc6839a98834e3a04a7df0e6324015b24d1c1767f
p899
sVRemarkPYQuanPin
p900
g52
sVDisplayName
p901
g52
sVKeyWord
p902
g52
sVPYInitial
p903
g52
sVUin
p904
I0
sg47
g50
sVMemberStatus
p905
I0
sVPYQuanPin
p906
g52
sVRemarkPYInitial
p907
g52
sVNickName
p908
V\u738b\u6cfd
p909
sVAttrStatus
p910
I98405
stp911
Rp912
I1
bag34
(g878
g39
(dp913
VUserName
p914
V@64b6b2e870eeaaab5e1193951bc08faacbc9920259c16f0fb7aac486bd3d8864
p915
sVRemarkPYQuanPin
p916
g52
sVDisplayName
p917
g52
sVKeyWord
p918
g52
sVPYInitial
p919
g52
sVUin
p920
I0
sg47
g50
sVMemberStatus
p921
I0
sVPYQuanPin
p922
g52
sVRemarkPYInitial
p923
g52
sVNickName
p924
V\u96e8\u519c
p925
sVAttrStatus
p926
I104485
stp927
Rp928
I1
bag34
(g878
g39
(dp929
VUserName
p930
V@52f2e0b495ae69893ddc6777335a17b1
p931
sVRemarkPYQuanPin
p932
g52
sVDisplayName
p933
g52
sVKeyWord
p934
g52
sVPYInitial
p935
g52
sVUin
p936
I0
sg47
g50
sVMemberStatus
p937
I0
sVPYQuanPin
p938
g52
sVRemarkPYInitial
p939
g52
sVNickName
p940
V\u3010\u5c0f\u65b0\u3011
p941
sVAttrStatus
p942
I241767
stp943
Rp944
I1
bag34
(g878
g39
(dp945
VUserName
p946
V@c1485fb4a7cba3ab2c161a6cb26373fed7565cb2c0368aeb975e868543102d09
p947
sVRemarkPYQuanPin
p948
g52
sVDisplayName
p949
g52
sVKeyWord
p950
g52
sVPYInitial
p951
g52
sVUin
p952
I0
sg47
g50
sVMemberStatus
p953
I0
sVPYQuanPin
p954
g52
sVRemarkPYInitial
p955
g52
sVNickName
p956
V\u5c0f\u59dc
p957
sVAttrStatus
p958
I16886269
stp959
Rp960
I1
bag34
(g878
g39
(dp961
g880
g881
sg882
g52
sg883
g52
sg884
g52
sg885
g52
sg886
I0
sg47
g50
sg889
I0
sg888
g52
sg887
g52
sg890
g891
sg892
I234021
stp962
Rp963
I1
bag34
(g878
g39
(dp964
VUserName
p965
V@df04b7e57c740b691dd1480b68e6c26f6faae41f1e7f2ebd7a653ca718cc8263
p966
sVRemarkPYQuanPin
p967
g52
sVDisplayName
p968
g52
sVKeyWord
p969
g52
sVPYInitial
p970
g52
sVUin
p971
I0
sg47
g50
sVMemberStatus
p972
I0
sVPYQuanPin
p973
g52
sVRemarkPYInitial
p974
g52
sVNickName
p975
V\u672c\u4eba\u4e13\u7528
p976
sVAttrStatus
p977
I98341
stp978
Rp979
I1
bag34
(g878
g39
(dp980
VUserName
p981
V@5469ba36f90e9ccdd611422a6c102dbb
p982
sVRemarkPYQuanPin
p983
g52
sVDisplayName
p984
g52
sVKeyWord
p985
g52
sVPYInitial
p986
g52
sVUin
p987
I0
sg47
g50
sVMemberStatus
p988
I0
sVPYQuanPin
p989
g52
sVRemarkPYInitial
p990
g52
sVNickName
p991
Vzang
p992
sVAttrStatus
p993
I2147602919
stp994
Rp995
I1
bag34
(g878
g39
(dp996
VUserName
p997
V@9d6c422b278745266e75021398305c986ca230336b01c19a1bca54deb2f42a94
p998
sVRemarkPYQuanPin
p999
g52
sVDisplayName
p1000
g52
sVKeyWord
p1001
g52
sVPYInitial
p1002
g52
sVUin
p1003
I0
sg47
g50
sVMemberStatus
p1004
I0
sVPYQuanPin
p1005
g52
sVRemarkPYInitial
p1006
g52
sVNickName
p1007
V\u6807\u6807
p1008
sVAttrStatus
p1009
I68645
stp1010
Rp1011
I1
bag34
(g878
g39
(dp1012
VUserName
p1013
V@a9e6f1694c42beeaf57790436dc157df
p1014
sVRemarkPYQuanPin
p1015
g52
sVDisplayName
p1016
g52
sVKeyWord
p1017
g52
sVPYInitial
p1018
g52
sVUin
p1019
I0
sg47
g50
sVMemberStatus
p1020
I0
sVPYQuanPin
p1021
g52
sVRemarkPYInitial
p1022
g52
sVNickName
p1023
V\u6781\u5ba2Sen
p1024
sVAttrStatus
p1025
I105317
stp1026
Rp1027
I1
batp1028
Rp1029
I1
bsVPYQuanPin
p1030
g52
sVRemarkPYInitial
p1031
g52
sVSex
p1032
I0
sVAppAccountFlag
p1033
I0
sVVerifyFlag
p1034
I0
sVProvince
p1035
g52
sVKeyWord
p1036
g52
sVRemarkName
p1037
g52
sVPYInitial
p1038
g52
sVIsOwner
p1039
I0
sVChatRoomId
p1040
I0
sVContactType
p1041
I0
sVHideInputBarFlag
p1042
I0
sVEncryChatRoomId
p1043
g52
sVAttrStatus
p1044
I0
sVSnsFlag
p1045
I0
sVMemberCount
p1046
I9
sVOwnerUin
p1047
I0
sVAlias
p1048
g52
sS'IsAdmin'
p1049
NsVSignature
p1050
g52
sVContactFlag
p1051
I2
sVNickName
p1052
V\u6d4b\u8bd54
p1053
sVChatRoomOwner
p1054
V@f30e206223a566b7d86f3ecbc6839a98834e3a04a7df0e6324015b24d1c1767f
p1055
sVRemarkPYQuanPin
p1056
g52
sVHeadImgUrl
p1057
V/cgi-bin/mmwebwx-bin/webwxgetheadimg?seq=0&username=@@49c2d70f7508ed68d2207ed23cbed3d87d1231be9ed3331dd67ee19bdfe860d3&skey=@crypt_f18ebe9c_970944b1cd5666b9e429e75bd09969e5
p1058
sVUin
p1059
I0
sVStarFriend
p1060
I0
sVStatues
p1061
I1
sVHeadImgUpdateFlag
p1062
I1
stp1063
Rp1064
I1
bag34
(g870
g39
(dp1065
VUserName
p1066
V@@c0cf2b20e2316fae1dccf69d82091054dddc84ccda6f99d949f76583ae16c42d
p1067
sVCity
p1068
g52
sVDisplayName
p1069
g52
sVUniFriend
p1070
I0
sg877
g34
(g38
g39
(dp1071
g41
g31
sg42
g43
sg44
g43
sg45
I0
sS'MemberList'
p1072
g50
sg51
g52
sg53
g52
sg77
I0
sg55
I0
sg56
I0
sg57
g43
sg58
g43
sg59
g52
sg60
g52
sg61
I0
sg62
I0
sg63
I1
sg64
g43
sg65
I0
sg68
I0
sg66
I0
sg67
I0
sg46
I0
sg69
g43
sg70
g52
sg71
I0
sg72
g73
sg74
g52
sg75
g76
sg54
I547102516
sg78
I0
sg79
I0
stp1073
Rp1074
I1
bsVMemberList
p1075
g34
(g35
g36
(lp1076
tp1077
Rp1078
I1
bsVPYQuanPin
p1079
g52
sVRemarkPYInitial
p1080
g52
sVSex
p1081
I0
sVAppAccountFlag
p1082
I0
sVVerifyFlag
p1083
I0
sVProvince
p1084
g52
sVKeyWord
p1085
g52
sVRemarkName
p1086
g52
sVPYInitial
p1087
g52
sVIsOwner
p1088
I0
sVChatRoomId
p1089
I0
sVContactType
p1090
I0
sVHideInputBarFlag
p1091
I0
sVEncryChatRoomId
p1092
g52
sVAttrStatus
p1093
I0
sVSnsFlag
p1094
I0
sVMemberCount
p1095
I8
sVOwnerUin
p1096
I0
sVAlias
p1097
g52
sg1049
NsVSignature
p1098
g52
sVContactFlag
p1099
I2
sVNickName
p1100
V\u738b\u8005\u5c0f\u5206\u961f
p1101
sVChatRoomOwner
p1102
V@64b6b2e870eeaaab5e1193951bc08faacbc9920259c16f0fb7aac486bd3d8864
p1103
sVRemarkPYQuanPin
p1104
g52
sVHeadImgUrl
p1105
V/cgi-bin/mmwebwx-bin/webwxgetheadimg?seq=0&username=@@c0cf2b20e2316fae1dccf69d82091054dddc84ccda6f99d949f76583ae16c42d&skey=@crypt_f18ebe9c_970944b1cd5666b9e429e75bd09969e5
p1106
sVUin
p1107
I0
sVStarFriend
p1108
I0
sVStatues
p1109
I1
sVHeadImgUpdateFlag
p1110
I1
stp1111
Rp1112
I1
bag34
(g870
g39
(dp1113
VUserName
p1114
V@@9bb3bdeb0c646b262868134ecdfca3b8f5baff75397ceca4f434c286bc79755e
p1115
sVCity
p1116
g52
sVDisplayName
p1117
g52
sVUniFriend
p1118
I0
sg877
g34
(g38
g39
(dp1119
g41
g31
sg42
g43
sg44
g43
sg45
I0
sg47
g50
sg51
g52
sg53
g52
sg77
I0
sg55
I0
sg56
I0
sg57
g43
sg58
g43
sg59
g52
sg60
g52
sg61
I0
sg62
I0
sg63
I1
sg64
g43
sg65
I0
sg68
I0
sg66
I0
sg67
I0
sg46
I0
sg69
g43
sg70
g52
sg71
I0
sg72
g73
sg74
g52
sg75
g76
sg54
I547102516
sg78
I0
sg79
I0
stp1120
Rp1121
I1
bsVMemberList
p1122
g34
(g35
g36
(lp1123
tp1124
Rp1125
I1
bsVPYQuanPin
p1126
g52
sVRemarkPYInitial
p1127
g52
sVSex
p1128
I0
sVAppAccountFlag
p1129
I0
sVVerifyFlag
p1130
I0
sVProvince
p1131
g52
sVKeyWord
p1132
g52
sVRemarkName
p1133
g52
sVPYInitial
p1134
g52
sVIsOwner
p1135
I0
sVChatRoomId
p1136
I0
sVHideInputBarFlag
p1137
I0
sVEncryChatRoomId
p1138
g52
sVAttrStatus
p1139
I0
sVSnsFlag
p1140
I0
sVMemberCount
p1141
I7
sVOwnerUin
p1142
I0
sVAlias
p1143
g52
sg1049
NsVSignature
p1144
g52
sVContactFlag
p1145
I0
sVNickName
p1146
V777
p1147
sVRemarkPYQuanPin
p1148
g52
sVHeadImgUrl
p1149
V/cgi-bin/mmwebwx-bin/webwxgetheadimg?seq=0&username=@@9bb3bdeb0c646b262868134ecdfca3b8f5baff75397ceca4f434c286bc79755e&skey=@crypt_f18ebe9c_970944b1cd5666b9e429e75bd09969e5
p1150
sVUin
p1151
I0
sVStarFriend
p1152
I0
sVStatues
p1153
I1
stp1154
Rp1155
I1
bag34
(g870
g39
(dp1156
VUserName
p1157
V@@99de32189aa751361c0a9e7a3525fb572ebfe159e018d3469d39f8b06004dd7a
p1158
sVCity
p1159
g52
sVDisplayName
p1160
g52
sVUniFriend
p1161
I0
sg877
g34
(g878
g39
(dp1162
VUserName
p1163
V@6f349e5e95aa664346ae4ba60a8ba0ce29f0f91689620d4d0efa6f881919fd99
p1164
sVRemarkPYQuanPin
p1165
g52
sVDisplayName
p1166
g52
sVKeyWord
p1167
g52
sVPYInitial
p1168
g52
sVUin
p1169
I0
sg1072
g50
sVRemarkPYInitial
p1170
g52
sVPYQuanPin
p1171
g52
sVMemberStatus
p1172
I0
sVNickName
p1173
V\u738b\u8005\u5c0f\u673a
p1174
sVAttrStatus
p1175
I234021
stp1176
Rp1177
I1
bsVMemberList
p1178
g34
(g35
g36
(lp1179
g34
(g878
g39
(dp1180
VUserName
p1181
V@72f41481acc11a916eb21c98439217e2
p1182
sVRemarkPYQuanPin
p1183
g52
sVDisplayName
p1184
g52
sVKeyWord
p1185
g52
sVPYInitial
p1186
g52
sVUin
p1187
I0
sg1072
g50
sVMemberStatus
p1188
I0
sVPYQuanPin
p1189
g52
sVRemarkPYInitial
p1190
g52
sVNickName
p1191
V\u8001K
p1192
sVAttrStatus
p1193
I4433959
stp1194
Rp1195
I1
bag34
(g878
g39
(dp1196
VUserName
p1197
V@04f5d6d6c8426c4d1a3d315567e87fe7432537a90583d2cb0f399c5f38f3e55a
p1198
sVRemarkPYQuanPin
p1199
g52
sVDisplayName
p1200
g52
sVKeyWord
p1201
g52
sVPYInitial
p1202
g52
sVUin
p1203
I0
sg1072
g50
sVMemberStatus
p1204
I0
sVPYQuanPin
p1205
g52
sVRemarkPYInitial
p1206
g52
sVNickName
p1207
V\u62bd\u62bd\u864e
p1208
sVAttrStatus
p1209
I33653285
stp1210
Rp1211
I1
bag34
(g878
g39
(dp1212
VUserName
p1213
V@839a8736ec944758993ec19199999d77801045003edf557ebc04e25ef4912487
p1214
sVRemarkPYQuanPin
p1215
g52
sVDisplayName
p1216
g52
sVKeyWord
p1217
g52
sVPYInitial
p1218
g52
sVUin
p1219
I0
sg1072
g50
sVMemberStatus
p1220
I0
sVPYQuanPin
p1221
g52
sVRemarkPYInitial
p1222
g52
sVNickName
p1223
V\u5927\u9646
p1224
sVAttrStatus
p1225
I117861
stp1226
Rp1227
I1
bag34
(g878
g39
(dp1228
VUserName
p1229
V@08da485dce0ed7c9a454dfd210f39f9cb8c90f6e04dc1b5a5816104b6b5e8ff3
p1230
sVRemarkPYQuanPin
p1231
g52
sVDisplayName
p1232
g52
sVKeyWord
p1233
g52
sVPYInitial
p1234
g52
sVUin
p1235
I0
sg1072
g50
sVMemberStatus
p1236
I0
sVPYQuanPin
p1237
g52
sVRemarkPYInitial
p1238
g52
sVNickName
p1239
V\u62bd\u5c0f\u62bd
p1240
sVAttrStatus
p1241
I33658917
stp1242
Rp1243
I1
bag34
(g878
g39
(dp1244
VUserName
p1245
V@9b9704210bc1a71f16bf4038d0c8c1f2c2daab2ab0eb7a3b352d29121a388746
p1246
sVRemarkPYQuanPin
p1247
g52
sVDisplayName
p1248
V\u5f6d\u5251\u73b2
p1249
sVKeyWord
p1250
g52
sVPYInitial
p1251
g52
sVUin
p1252
I0
sg1072
g50
sVMemberStatus
p1253
I0
sVPYQuanPin
p1254
g52
sVRemarkPYInitial
p1255
g52
sVNickName
p1256
V\u7a7a\u767d\u767d\u7684
p1257
sVAttrStatus
p1258
I36901
stp1259
Rp1260
I1
bag34
(g878
g39
(dp1261
VUserName
p1262
V@f30e206223a566b7d86f3ecbc6839a98834e3a04a7df0e6324015b24d1c1767f
p1263
sVRemarkPYQuanPin
p1264
g52
sVDisplayName
p1265
g52
sVKeyWord
p1266
g52
sVPYInitial
p1267
g52
sVUin
p1268
I0
sg1072
g50
sVMemberStatus
p1269
I0
sVPYQuanPin
p1270
g52
sVRemarkPYInitial
p1271
g52
sVNickName
p1272
V\u738b\u6cfd
p1273
sVAttrStatus
p1274
I98405
stp1275
Rp1276
I1
bag34
(g878
g39
(dp1277
VUserName
p1278
V@c1485fb4a7cba3ab2c161a6cb26373fed7565cb2c0368aeb975e868543102d09
p1279
sVRemarkPYQuanPin
p1280
g52
sVDisplayName
p1281
g52
sVKeyWord
p1282
g52
sVPYInitial
p1283
g52
sVUin
p1284
I0
sg1072
g50
sVMemberStatus
p1285
I0
sVPYQuanPin
p1286
g52
sVRemarkPYInitial
p1287
g52
sVNickName
p1288
V\u5c0f\u59dc
p1289
sVAttrStatus
p1290
I16886269
stp1291
Rp1292
I1
bag34
(g878
g39
(dp1293
VUserName
p1294
V@f6b3ab043d2bd8121b63deeac1e3189c7e103c8d64dc228348fc59322b91e1d2
p1295
sVRemarkPYQuanPin
p1296
g52
sVDisplayName
p1297
g52
sVKeyWord
p1298
g52
sVPYInitial
p1299
g52
sVUin
p1300
I0
sg1072
g50
sVMemberStatus
p1301
I0
sVPYQuanPin
p1302
g52
sVRemarkPYInitial
p1303
g52
sVNickName
p1304
V\u5929\u7136\u5446
p1305
sVAttrStatus
p1306
I135909
stp1307
Rp1308
I1
bag34
(g878
g39
(dp1309
VUserName
p1310
V@b1a8eebd3a9770b67afb8e395afe9d47
p1311
sVRemarkPYQuanPin
p1312
g52
sVDisplayName
p1313
g52
sVKeyWord
p1314
g52
sVPYInitial
p1315
g52
sVUin
p1316
I0
sg1072
g50
sVMemberStatus
p1317
I0
sVPYQuanPin
p1318
g52
sVRemarkPYInitial
p1319
g52
sVNickName
p1320
V\u597d\u597d\u8bf4\U0001f365
p1321
sVAttrStatus
p1322
I2147602597
stp1323
Rp1324
I1
bag34
(g878
g39
(dp1325
g1163
g1164
sg1165
g52
sg1166
g52
sg1167
g52
sg1168
g52
sg1169
I0
sg1072
g50
sg1172
I0
sg1171
g52
sg1170
g52
sg1173
g1174
sg1175
I234021
stp1326
Rp1327
I1
bag34
(g878
g39
(dp1328
VUserName
p1329
V@50b66a52d45296f6c5a5fd6f76c79567df33d9fce3bd2130292c3d3dba06c53a
p1330
sVRemarkPYQuanPin
p1331
g52
sVDisplayName
p1332
g52
sVKeyWord
p1333
g52
sVPYInitial
p1334
g52
sVUin
p1335
I0
sg1072
g50
sVMemberStatus
p1336
I0
sVPYQuanPin
p1337
g52
sVRemarkPYInitial
p1338
g52
sVNickName
p1339
V\u738b\u8005\u4e13\u673a\u5ba2\u670d
p1340
sVAttrStatus
p1341
I233509
stp1342
Rp1343
I1
bag34
(g878
g39
(dp1344
VUserName
p1345
V@822baf74d5b5b6971ccdd47dad11b8442ce489965c6d0babdba4dfa6cc28653c
p1346
sVRemarkPYQuanPin
p1347
g52
sVDisplayName
p1348
g52
sVKeyWord
p1349
g52
sVPYInitial
p1350
g52
sVUin
p1351
I0
sg1072
g50
sVMemberStatus
p1352
I0
sVPYQuanPin
p1353
g52
sVRemarkPYInitial
p1354
g52
sVNickName
p1355
V\u738b\u8005\u4e13\u673a \u7a7a\u5c116
p1356
sVAttrStatus
p1357
I233919
stp1358
Rp1359
I1
bag34
(g878
g39
(dp1360
VUserName
p1361
V@3c04685fef7ee011525b8b5d8f66184ce75c4b1a1b7eb96b7a046ae07f088c7d
p1362
sVRemarkPYQuanPin
p1363
g52
sVDisplayName
p1364
g52
sVKeyWord
p1365
g52
sVPYInitial
p1366
g52
sVUin
p1367
I0
sg1072
g50
sVMemberStatus
p1368
I0
sVPYQuanPin
p1369
g52
sVRemarkPYInitial
p1370
g52
sVNickName
p1371
VBabylo
p1372
sVAttrStatus
p1373
I100861
stp1374
Rp1375
I1
bag34
(g878
g39
(dp1376
VUserName
p1377
V@5ee1d813e1adce4655713b6a026af74c
p1378
sVRemarkPYQuanPin
p1379
g52
sVDisplayName
p1380
g52
sVKeyWord
p1381
g52
sVPYInitial
p1382
g52
sVUin
p1383
I0
sg1072
g50
sVMemberStatus
p1384
I0
sVPYQuanPin
p1385
g52
sVRemarkPYInitial
p1386
g52
sVNickName
p1387
Vbo\u7af6
p1388
sVAttrStatus
p1389
I2185482343
stp1390
Rp1391
I1
bag34
(g878
g39
(dp1392
VUserName
p1393
V@61b8af9740cc5d3b10b0b9b0b985de5b
p1394
sVRemarkPYQuanPin
p1395
g52
sVDisplayName
p1396
g52
sVKeyWord
p1397
g52
sVPYInitial
p1398
g52
sVUin
p1399
I0
sg1072
g50
sVMemberStatus
p1400
I0
sVPYQuanPin
p1401
g52
sVRemarkPYInitial
p1402
g52
sVNickName
p1403
V\u4e86\u4e0d\u8d77\u7684\u76d6\u8328\u6bd4
p1404
sVAttrStatus
p1405
I4427815
stp1406
Rp1407
I1
bag34
(g878
g39
(dp1408
VUserName
p1409
V@6ea60b22e92bcacd582340c903c151b2444ef039047ca7e49a7c216ac8d214f4
p1410
sVRemarkPYQuanPin
p1411
g52
sVDisplayName
p1412
g52
sVKeyWord
p1413
g52
sVPYInitial
p1414
g52
sVUin
p1415
I0
sg1072
g50
sVMemberStatus
p1416
I0
sVPYQuanPin
p1417
g52
sVRemarkPYInitial
p1418
g52
sVNickName
p1419
V\u6b27\u9633
p1420
sVAttrStatus
p1421
I135269
stp1422
Rp1423
I1
bag34
(g878
g39
(dp1424
VUserName
p1425
V@3cfb75f8a770d03a3b6cea7a1cd41f83
p1426
sVRemarkPYQuanPin
p1427
g52
sVDisplayName
p1428
g52
sVKeyWord
p1429
g52
sVPYInitial
p1430
g52
sVUin
p1431
I0
sg1072
g50
sVMemberStatus
p1432
I0
sVPYQuanPin
p1433
g52
sVRemarkPYInitial
p1434
g52
sVNickName
p1435
V\u6d77\u6d9b
p1436
sVAttrStatus
p1437
I111231
stp1438
Rp1439
I1
batp1440
Rp1441
I1
bsVPYQuanPin
p1442
g52
sVRemarkPYInitial
p1443
g52
sVSex
p1444
I0
sVAppAccountFlag
p1445
I0
sVVerifyFlag
p1446
I0
sVProvince
p1447
g52
sVKeyWord
p1448
g52
sVRemarkName
p1449
g52
sVPYInitial
p1450
g52
sVIsOwner
p1451
I0
sVChatRoomId
p1452
I0
sVContactType
p1453
I0
sVHideInputBarFlag
p1454
I0
sVEncryChatRoomId
p1455
g52
sVAttrStatus
p1456
I0
sVSnsFlag
p1457
I0
sVMemberCount
p1458
I17
sVOwnerUin
p1459
I0
sVAlias
p1460
g52
sg1049
NsVSignature
p1461
g52
sVContactFlag
p1462
I2
sVNickName
p1463
V\u738b\u8005\u4e13\u673a\u4e58\u52a1\u7ec4
p1464
sVChatRoomOwner
p1465
V@839a8736ec944758993ec19199999d77801045003edf557ebc04e25ef4912487
p1466
sVRemarkPYQuanPin
p1467
g52
sVHeadImgUrl
p1468
V/cgi-bin/mmwebwx-bin/webwxgetheadimg?seq=0&username=@@99de32189aa751361c0a9e7a3525fb572ebfe159e018d3469d39f8b06004dd7a&skey=@crypt_f18ebe9c_970944b1cd5666b9e429e75bd09969e5
p1469
sVUin
p1470
I0
sVStarFriend
p1471
I0
sVStatues
p1472
I1
sVHeadImgUpdateFlag
p1473
I1
stp1474
Rp1475
I1
bag34
(g870
g39
(dp1476
VUserName
p1477
V@@7dd654b317427330ca5971c6a4ba22d2ed638f3ef5ba0e4ca788d5957ff78a01
p1478
sVCity
p1479
g52
sVSnsFlag
p1480
I0
sVMemberCount
p1481
I5
sS'Self'
p1482
g34
(g878
g39
(dp1483
VUserName
p1484
V@6f349e5e95aa664346ae4ba60a8ba0ce29f0f91689620d4d0efa6f881919fd99
p1485
sVRemarkPYQuanPin
p1486
g52
sVDisplayName
p1487
g52
sVKeyWord
p1488
g52
sVPYInitial
p1489
g52
sVUin
p1490
I0
sS'MemberList'
p1491
g50
sVMemberStatus
p1492
I0
sVPYQuanPin
p1493
g52
sVRemarkPYInitial
p1494
g52
sVNickName
p1495
V\u738b\u8005\u5c0f\u673a
p1496
sVAttrStatus
p1497
I234021
stp1498
Rp1499
I1
bsS'OwnerUin'
p1500
I0
sVMemberList
p1501
g34
(g35
g36
(lp1502
g34
(g878
g39
(dp1503
VUserName
p1504
V@5469ba36f90e9ccdd611422a6c102dbb
p1505
sVRemarkPYQuanPin
p1506
g52
sVDisplayName
p1507
g52
sVKeyWord
p1508
g52
sVPYInitial
p1509
g52
sVUin
p1510
I0
sg1491
g50
sVMemberStatus
p1511
I0
sVPYQuanPin
p1512
g52
sVRemarkPYInitial
p1513
g52
sVNickName
p1514
Vzang
p1515
sVAttrStatus
p1516
I2147602919
stp1517
Rp1518
I1
bag34
(g878
g39
(dp1519
g1484
g1485
sg1486
g52
sg1487
g52
sg1488
g52
sg1489
g52
sg1490
I0
sg1491
g50
sg1492
I0
sg1493
g52
sg1494
g52
sg1495
g1496
sg1497
I234021
stp1520
Rp1521
I1
bag34
(g878
g39
(dp1522
VUserName
p1523
V@f30e206223a566b7d86f3ecbc6839a98834e3a04a7df0e6324015b24d1c1767f
p1524
sVRemarkPYQuanPin
p1525
g52
sVDisplayName
p1526
g52
sVKeyWord
p1527
g52
sVPYInitial
p1528
g52
sVUin
p1529
I0
sg1491
g50
sVMemberStatus
p1530
I0
sVPYQuanPin
p1531
g52
sVRemarkPYInitial
p1532
g52
sVNickName
p1533
V\u738b\u6cfd
p1534
sVAttrStatus
p1535
I98405
stp1536
Rp1537
I1
bag34
(g878
g39
(dp1538
VUserName
p1539
V@64b6b2e870eeaaab5e1193951bc08faacbc9920259c16f0fb7aac486bd3d8864
p1540
sVRemarkPYQuanPin
p1541
g52
sVDisplayName
p1542
g52
sVKeyWord
p1543
g52
sVPYInitial
p1544
g52
sVUin
p1545
I0
sg1491
g50
sVMemberStatus
p1546
I0
sVPYQuanPin
p1547
g52
sVRemarkPYInitial
p1548
g52
sVNickName
p1549
V\u96e8\u519c
p1550
sVAttrStatus
p1551
I104485
stp1552
Rp1553
I1
bag34
(g878
g39
(dp1554
VUserName
p1555
V@52f2e0b495ae69893ddc6777335a17b1
p1556
sVRemarkPYQuanPin
p1557
g52
sVDisplayName
p1558
g52
sVKeyWord
p1559
g52
sVPYInitial
p1560
g52
sVUin
p1561
I0
sg1491
g50
sVMemberStatus
p1562
I0
sVPYQuanPin
p1563
g52
sVRemarkPYInitial
p1564
g52
sVNickName
p1565
V\u3010\u5c0f\u65b0\u3011
p1566
sVAttrStatus
p1567
I241767
stp1568
Rp1569
I1
batp1570
Rp1571
I1
bsVAlias
p1572
g52
sS'IsAdmin'
p1573
NsVSignature
p1574
g52
sVContactFlag
p1575
I2
sVNickName
p1576
V\u6d4b\u8bd55
p1577
sVChatRoomOwner
p1578
V@f30e206223a566b7d86f3ecbc6839a98834e3a04a7df0e6324015b24d1c1767f
p1579
sVVerifyFlag
p1580
I0
sVProvince
p1581
g52
sVStatues
p1582
I1
sVKeyWord
p1583
g52
sVRemarkName
p1584
g52
sVHeadImgUrl
p1585
V/cgi-bin/mmwebwx-bin/webwxgetheadimg?seq=0&username=@@7dd654b317427330ca5971c6a4ba22d2ed638f3ef5ba0e4ca788d5957ff78a01&skey=@crypt_f18ebe9c_970944b1cd5666b9e429e75bd09969e5
p1586
sVSex
p1587
I0
sVContactType
p1588
I0
sVHideInputBarFlag
p1589
I0
sVAttrStatus
p1590
I0
sVHeadImgUpdateFlag
p1591
I1
stp1592
Rp1593
I1
bag34
(g870
g39
(dp1594
VUserName
p1595
V@@96bc9a06b9024d2f095648b4dc8cfdc552754a7d95e16eb3c49c7b1b58fab4a2
p1596
sVCity
p1597
g52
sVSnsFlag
p1598
I0
sVMemberCount
p1599
I4
sS'Self'
p1600
g34
(g878
g39
(dp1601
VUserName
p1602
V@6f349e5e95aa664346ae4ba60a8ba0ce29f0f91689620d4d0efa6f881919fd99
p1603
sVRemarkPYQuanPin
p1604
g52
sVDisplayName
p1605
g52
sVKeyWord
p1606
g52
sVPYInitial
p1607
g52
sVUin
p1608
I0
sg1072
g50
sVRemarkPYInitial
p1609
g52
sVPYQuanPin
p1610
g52
sVMemberStatus
p1611
I0
sVNickName
p1612
V\u738b\u8005\u5c0f\u673a
p1613
sVAttrStatus
p1614
I234021
stp1615
Rp1616
I1
bsS'OwnerUin'
p1617
I0
sVMemberList
p1618
g34
(g35
g36
(lp1619
g34
(g878
g39
(dp1620
VUserName
p1621
V@822baf74d5b5b6971ccdd47dad11b8442ce489965c6d0babdba4dfa6cc28653c
p1622
sVRemarkPYQuanPin
p1623
g52
sVDisplayName
p1624
g52
sVKeyWord
p1625
g52
sVPYInitial
p1626
g52
sVUin
p1627
I0
sg1072
g50
sVMemberStatus
p1628
I0
sVPYQuanPin
p1629
g52
sVRemarkPYInitial
p1630
g52
sVNickName
p1631
V\u738b\u8005\u4e13\u673a \u7a7a\u5c116
p1632
sVAttrStatus
p1633
I233919
stp1634
Rp1635
I1
bag34
(g878
g39
(dp1636
g1602
g1603
sg1604
g52
sg1605
g52
sg1606
g52
sg1607
g52
sg1608
I0
sg1072
g50
sg1611
I0
sg1610
g52
sg1609
g52
sg1612
g1613
sg1614
I234021
stp1637
Rp1638
I1
bag34
(g878
g39
(dp1639
VUserName
p1640
V@50b66a52d45296f6c5a5fd6f76c79567df33d9fce3bd2130292c3d3dba06c53a
p1641
sVRemarkPYQuanPin
p1642
g52
sVDisplayName
p1643
g52
sVKeyWord
p1644
g52
sVPYInitial
p1645
g52
sVUin
p1646
I0
sg1072
g50
sVMemberStatus
p1647
I0
sVPYQuanPin
p1648
g52
sVRemarkPYInitial
p1649
g52
sVNickName
p1650
V\u738b\u8005\u4e13\u673a\u5ba2\u670d
p1651
sVAttrStatus
p1652
I233509
stp1653
Rp1654
I1
bag34
(g878
g39
(dp1655
VUserName
p1656
V@f6b3ab043d2bd8121b63deeac1e3189c7e103c8d64dc228348fc59322b91e1d2
p1657
sVRemarkPYQuanPin
p1658
g52
sVDisplayName
p1659
g52
sVKeyWord
p1660
g52
sVPYInitial
p1661
g52
sVUin
p1662
I0
sg1072
g50
sVMemberStatus
p1663
I0
sVPYQuanPin
p1664
g52
sVRemarkPYInitial
p1665
g52
sVNickName
p1666
V\u5929\u7136\u5446
p1667
sVAttrStatus
p1668
I135909
stp1669
Rp1670
I1
batp1671
Rp1672
I1
bsVAlias
p1673
g52
sS'IsAdmin'
p1674
NsVSignature
p1675
g52
sVContactFlag
p1676
I2
sVNickName
p1677
V\u673a\u957f:\u8c22\u7ecd\u89c9
p1678
sVChatRoomOwner
p1679
V@822baf74d5b5b6971ccdd47dad11b8442ce489965c6d0babdba4dfa6cc28653c
p1680
sVVerifyFlag
p1681
I0
sVProvince
p1682
g52
sVStatues
p1683
I1
sVKeyWord
p1684
g52
sVRemarkName
p1685
g52
sVHeadImgUrl
p1686
V/cgi-bin/mmwebwx-bin/webwxgetheadimg?seq=0&username=@@96bc9a06b9024d2f095648b4dc8cfdc552754a7d95e16eb3c49c7b1b58fab4a2&skey=@crypt_f18ebe9c_970944b1cd5666b9e429e75bd09969e5
p1687
sVSex
p1688
I0
sVContactType
p1689
I0
sVHideInputBarFlag
p1690
I0
sVAttrStatus
p1691
I0
sVHeadImgUpdateFlag
p1692
I1
stp1693
Rp1694
I1
bag34
(g870
g39
(dp1695
VUserName
p1696
V@@9802252043ccc87fd57d385775b7cd1a4c160d1b089e53437ea960084614d385
p1697
sVCity
p1698
g52
sVSnsFlag
p1699
I0
sVMemberCount
p1700
I4
sg1600
g34
(g878
g39
(dp1701
VUserName
p1702
V@6f349e5e95aa664346ae4ba60a8ba0ce29f0f91689620d4d0efa6f881919fd99
p1703
sVRemarkPYQuanPin
p1704
g52
sVDisplayName
p1705
g52
sVKeyWord
p1706
g52
sVPYInitial
p1707
g52
sVUin
p1708
I0
sg1072
g50
sVRemarkPYInitial
p1709
g52
sVPYQuanPin
p1710
g52
sVMemberStatus
p1711
I0
sVNickName
p1712
V\u738b\u8005\u5c0f\u673a
p1713
sVAttrStatus
p1714
I234021
stp1715
Rp1716
I1
bsg1617
I0
sVMemberList
p1717
g34
(g35
g36
(lp1718
g34
(g878
g39
(dp1719
VUserName
p1720
V@822baf74d5b5b6971ccdd47dad11b8442ce489965c6d0babdba4dfa6cc28653c
p1721
sVRemarkPYQuanPin
p1722
g52
sVDisplayName
p1723
g52
sVKeyWord
p1724
g52
sVPYInitial
p1725
g52
sVUin
p1726
I0
sg1072
g50
sVMemberStatus
p1727
I0
sVPYQuanPin
p1728
g52
sVRemarkPYInitial
p1729
g52
sVNickName
p1730
V\u738b\u8005\u4e13\u673a \u7a7a\u5c116
p1731
sVAttrStatus
p1732
I233919
stp1733
Rp1734
I1
bag34
(g878
g39
(dp1735
g1702
g1703
sg1704
g52
sg1705
g52
sg1706
g52
sg1707
g52
sg1708
I0
sg1072
g50
sg1711
I0
sg1710
g52
sg1709
g52
sg1712
g1713
sg1714
I234021
stp1736
Rp1737
I1
bag34
(g878
g39
(dp1738
VUserName
p1739
V@f6b3ab043d2bd8121b63deeac1e3189c7e103c8d64dc228348fc59322b91e1d2
p1740
sVRemarkPYQuanPin
p1741
g52
sVDisplayName
p1742
g52
sVKeyWord
p1743
g52
sVPYInitial
p1744
g52
sVUin
p1745
I0
sg1072
g50
sVMemberStatus
p1746
I0
sVPYQuanPin
p1747
g52
sVRemarkPYInitial
p1748
g52
sVNickName
p1749
V\u5929\u7136\u5446
p1750
sVAttrStatus
p1751
I135909
stp1752
Rp1753
I1
bag34
(g878
g39
(dp1754
VUserName
p1755
V@50b66a52d45296f6c5a5fd6f76c79567df33d9fce3bd2130292c3d3dba06c53a
p1756
sVRemarkPYQuanPin
p1757
g52
sVDisplayName
p1758
g52
sVKeyWord
p1759
g52
sVPYInitial
p1760
g52
sVUin
p1761
I0
sg1072
g50
sVMemberStatus
p1762
I0
sVPYQuanPin
p1763
g52
sVRemarkPYInitial
p1764
g52
sVNickName
p1765
V\u738b\u8005\u4e13\u673a\u5ba2\u670d
p1766
sVAttrStatus
p1767
I233509
stp1768
Rp1769
I1
batp1770
Rp1771
I1
bsVAlias
p1772
g52
sg1674
NsVSignature
p1773
g52
sVContactFlag
p1774
I2
sVNickName
p1775
V\u673a\u957f:\u4efb\u5b89\u52c7
p1776
sVChatRoomOwner
p1777
V@822baf74d5b5b6971ccdd47dad11b8442ce489965c6d0babdba4dfa6cc28653c
p1778
sVVerifyFlag
p1779
I0
sVProvince
p1780
g52
sVStatues
p1781
I1
sVKeyWord
p1782
g52
sVRemarkName
p1783
g52
sVHeadImgUrl
p1784
V/cgi-bin/mmwebwx-bin/webwxgetheadimg?seq=0&username=@@9802252043ccc87fd57d385775b7cd1a4c160d1b089e53437ea960084614d385&skey=@crypt_f18ebe9c_970944b1cd5666b9e429e75bd09969e5
p1785
sVSex
p1786
I0
sVContactType
p1787
I0
sVHideInputBarFlag
p1788
I0
sVAttrStatus
p1789
I0
sVHeadImgUpdateFlag
p1790
I1
stp1791
Rp1792
I1
bag34
(g870
g39
(dp1793
VUserName
p1794
V@@3117c533c49bc4aca714b39667536a7013499091b3238c35f9b2e526af393661
p1795
sVCity
p1796
g52
sVSnsFlag
p1797
I0
sVMemberCount
p1798
I4
sg1600
g34
(g878
g39
(dp1799
VUserName
p1800
V@6f349e5e95aa664346ae4ba60a8ba0ce29f0f91689620d4d0efa6f881919fd99
p1801
sVRemarkPYQuanPin
p1802
g52
sVDisplayName
p1803
g52
sVKeyWord
p1804
g52
sVPYInitial
p1805
g52
sVUin
p1806
I0
sg1072
g50
sVRemarkPYInitial
p1807
g52
sVPYQuanPin
p1808
g52
sVMemberStatus
p1809
I0
sVNickName
p1810
V\u738b\u8005\u5c0f\u673a
p1811
sVAttrStatus
p1812
I234021
stp1813
Rp1814
I1
bsg1617
I0
sVMemberList
p1815
g34
(g35
g36
(lp1816
g34
(g878
g39
(dp1817
VUserName
p1818
V@822baf74d5b5b6971ccdd47dad11b8442ce489965c6d0babdba4dfa6cc28653c
p1819
sVRemarkPYQuanPin
p1820
g52
sVDisplayName
p1821
g52
sVKeyWord
p1822
g52
sVPYInitial
p1823
g52
sVUin
p1824
I0
sg1072
g50
sVMemberStatus
p1825
I0
sVPYQuanPin
p1826
g52
sVRemarkPYInitial
p1827
g52
sVNickName
p1828
V\u738b\u8005\u4e13\u673a \u7a7a\u5c116
p1829
sVAttrStatus
p1830
I233919
stp1831
Rp1832
I1
bag34
(g878
g39
(dp1833
g1800
g1801
sg1802
g52
sg1803
g52
sg1804
g52
sg1805
g52
sg1806
I0
sg1072
g50
sg1809
I0
sg1808
g52
sg1807
g52
sg1810
g1811
sg1812
I234021
stp1834
Rp1835
I1
bag34
(g878
g39
(dp1836
VUserName
p1837
V@f6b3ab043d2bd8121b63deeac1e3189c7e103c8d64dc228348fc59322b91e1d2
p1838
sVRemarkPYQuanPin
p1839
g52
sVDisplayName
p1840
g52
sVKeyWord
p1841
g52
sVPYInitial
p1842
g52
sVUin
p1843
I0
sg1072
g50
sVMemberStatus
p1844
I0
sVPYQuanPin
p1845
g52
sVRemarkPYInitial
p1846
g52
sVNickName
p1847
V\u5929\u7136\u5446
p1848
sVAttrStatus
p1849
I135909
stp1850
Rp1851
I1
bag34
(g878
g39
(dp1852
VUserName
p1853
V@50b66a52d45296f6c5a5fd6f76c79567df33d9fce3bd2130292c3d3dba06c53a
p1854
sVRemarkPYQuanPin
p1855
g52
sVDisplayName
p1856
g52
sVKeyWord
p1857
g52
sVPYInitial
p1858
g52
sVUin
p1859
I0
sg1072
g50
sVMemberStatus
p1860
I0
sVPYQuanPin
p1861
g52
sVRemarkPYInitial
p1862
g52
sVNickName
p1863
V\u738b\u8005\u4e13\u673a\u5ba2\u670d
p1864
sVAttrStatus
p1865
I233509
stp1866
Rp1867
I1
batp1868
Rp1869
I1
bsVAlias
p1870
g52
sg1674
NsVSignature
p1871
g52
sVContactFlag
p1872
I2
sVNickName
p1873
V\u673a\u957f:\u5b81\u58a8\u82b1
p1874
sVChatRoomOwner
p1875
V@822baf74d5b5b6971ccdd47dad11b8442ce489965c6d0babdba4dfa6cc28653c
p1876
sVVerifyFlag
p1877
I0
sVProvince
p1878
g52
sVStatues
p1879
I1
sVKeyWord
p1880
g52
sVRemarkName
p1881
g52
sVHeadImgUrl
p1882
V/cgi-bin/mmwebwx-bin/webwxgetheadimg?seq=0&username=@@3117c533c49bc4aca714b39667536a7013499091b3238c35f9b2e526af393661&skey=@crypt_f18ebe9c_970944b1cd5666b9e429e75bd09969e5
p1883
sVSex
p1884
I0
sVContactType
p1885
I0
sVHideInputBarFlag
p1886
I0
sVAttrStatus
p1887
I0
sVHeadImgUpdateFlag
p1888
I1
stp1889
Rp1890
I1
bag34
(g870
g39
(dp1891
VUserName
p1892
V@@d7e416a5943ff3b944d841fc803f362978d5560ad89aea220bc08c0f58afa35f
p1893
sVCity
p1894
g52
sVSnsFlag
p1895
I0
sVMemberCount
p1896
I5
sS'Self'
p1897
g34
(g878
g39
(dp1898
VUserName
p1899
V@6f349e5e95aa664346ae4ba60a8ba0ce29f0f91689620d4d0efa6f881919fd99
p1900
sVRemarkPYQuanPin
p1901
g52
sVDisplayName
p1902
g52
sVKeyWord
p1903
g52
sVPYInitial
p1904
g52
sVUin
p1905
I0
sS'MemberList'
p1906
g50
sVMemberStatus
p1907
I0
sVPYQuanPin
p1908
g52
sVRemarkPYInitial
p1909
g52
sVNickName
p1910
V\u738b\u8005\u5c0f\u673a
p1911
sVAttrStatus
p1912
I234021
stp1913
Rp1914
I1
bsS'OwnerUin'
p1915
I0
sVMemberList
p1916
g34
(g35
g36
(lp1917
g34
(g878
g39
(dp1918
VUserName
p1919
V@822baf74d5b5b6971ccdd47dad11b8442ce489965c6d0babdba4dfa6cc28653c
p1920
sVRemarkPYQuanPin
p1921
g52
sVDisplayName
p1922
g52
sVKeyWord
p1923
g52
sVPYInitial
p1924
g52
sVUin
p1925
I0
sg1906
g50
sVMemberStatus
p1926
I0
sVPYQuanPin
p1927
g52
sVRemarkPYInitial
p1928
g52
sVNickName
p1929
V\u738b\u8005\u4e13\u673a \u7a7a\u5c116
p1930
sVAttrStatus
p1931
I233919
stp1932
Rp1933
I1
bag1914
ag34
(g878
g39
(dp1934
VUserName
p1935
V@50b66a52d45296f6c5a5fd6f76c79567df33d9fce3bd2130292c3d3dba06c53a
p1936
sVRemarkPYQuanPin
p1937
g52
sVDisplayName
p1938
g52
sVKeyWord
p1939
g52
sVPYInitial
p1940
g52
sVUin
p1941
I0
sg1906
g50
sVMemberStatus
p1942
I0
sVPYQuanPin
p1943
g52
sVRemarkPYInitial
p1944
g52
sVNickName
p1945
V\u738b\u8005\u4e13\u673a\u5ba2\u670d
p1946
sVAttrStatus
p1947
I233509
stp1948
Rp1949
I1
bag34
(g878
g39
(dp1950
VUserName
p1951
V@f6b3ab043d2bd8121b63deeac1e3189c7e103c8d64dc228348fc59322b91e1d2
p1952
sVRemarkPYQuanPin
p1953
g52
sVDisplayName
p1954
g52
sVKeyWord
p1955
g52
sVPYInitial
p1956
g52
sVUin
p1957
I0
sg1906
g50
sVMemberStatus
p1958
I0
sVPYQuanPin
p1959
g52
sVRemarkPYInitial
p1960
g52
sVNickName
p1961
V\u5929\u7136\u5446
p1962
sVAttrStatus
p1963
I135909
stp1964
Rp1965
I1
bag34
(g878
g39
(dp1966
VUserName
p1967
V@c46cadfc5f1ed0256ad3f41f56cf50f1
p1968
sVRemarkPYQuanPin
p1969
g52
sVDisplayName
p1970
g52
sVKeyWord
p1971
g52
sVPYInitial
p1972
g52
sVUin
p1973
I0
sg1906
g50
sVMemberStatus
p1974
I0
sVPYQuanPin
p1975
g52
sVRemarkPYInitial
p1976
g52
sVNickName
p1977
Vzxz_zxz
p1978
sVAttrStatus
p1979
I102503
stp1980
Rp1981
I1
batp1982
Rp1983
I1
bsVAlias
p1984
g52
sS'IsAdmin'
p1985
NsVSignature
p1986
g52
sVContactFlag
p1987
I2
sVNickName
p1988
V\u673a\u957f:\u949f\u946b\u6d32
p1989
sVChatRoomOwner
p1990
V@822baf74d5b5b6971ccdd47dad11b8442ce489965c6d0babdba4dfa6cc28653c
p1991
sVVerifyFlag
p1992
I0
sVProvince
p1993
g52
sVStatues
p1994
I1
sVHeadImgUrl
p1995
V/cgi-bin/mmwebwx-bin/webwxgetheadimg?seq=0&username=@@d7e416a5943ff3b944d841fc803f362978d5560ad89aea220bc08c0f58afa35f&skey=@crypt_f18ebe9c_970944b1cd5666b9e429e75bd09969e5
p1996
sVKeyWord
p1997
g52
sVRemarkName
p1998
g52
sVSex
p1999
I0
sVContactType
p2000
I0
sVHideInputBarFlag
p2001
I0
sVAttrStatus
p2002
I0
sVHeadImgUpdateFlag
p2003
I1
stp2004
Rp2005
I1
bag34
(g870
g39
(dp2006
VUserName
p2007
V@@a8dfd170faca87890e460384629c0dd304a61221fb8a4f387fe7b374d48343ad
p2008
sVCity
p2009
g52
sVSnsFlag
p2010
I0
sVMemberCount
p2011
I4
sg1897
g34
(g878
g39
(dp2012
VUserName
p2013
V@6f349e5e95aa664346ae4ba60a8ba0ce29f0f91689620d4d0efa6f881919fd99
p2014
sVRemarkPYQuanPin
p2015
g52
sVDisplayName
p2016
g52
sVKeyWord
p2017
g52
sVPYInitial
p2018
g52
sVUin
p2019
I0
sg1906
g50
sVMemberStatus
p2020
I0
sVPYQuanPin
p2021
g52
sVRemarkPYInitial
p2022
g52
sVNickName
p2023
V\u738b\u8005\u5c0f\u673a
p2024
sVAttrStatus
p2025
I234021
stp2026
Rp2027
I1
bsg1915
I0
sVMemberList
p2028
g34
(g35
g36
(lp2029
g34
(g878
g39
(dp2030
VUserName
p2031
V@822baf74d5b5b6971ccdd47dad11b8442ce489965c6d0babdba4dfa6cc28653c
p2032
sVRemarkPYQuanPin
p2033
g52
sVDisplayName
p2034
g52
sVKeyWord
p2035
g52
sVPYInitial
p2036
g52
sVUin
p2037
I0
sg1906
g50
sVMemberStatus
p2038
I0
sVPYQuanPin
p2039
g52
sVRemarkPYInitial
p2040
g52
sVNickName
p2041
V\u738b\u8005\u4e13\u673a \u7a7a\u5c116
p2042
sVAttrStatus
p2043
I233919
stp2044
Rp2045
I1
bag2027
ag34
(g878
g39
(dp2046
VUserName
p2047
V@50b66a52d45296f6c5a5fd6f76c79567df33d9fce3bd2130292c3d3dba06c53a
p2048
sVRemarkPYQuanPin
p2049
g52
sVDisplayName
p2050
g52
sVKeyWord
p2051
g52
sVPYInitial
p2052
g52
sVUin
p2053
I0
sg1906
g50
sVMemberStatus
p2054
I0
sVPYQuanPin
p2055
g52
sVRemarkPYInitial
p2056
g52
sVNickName
p2057
V\u738b\u8005\u4e13\u673a\u5ba2\u670d
p2058
sVAttrStatus
p2059
I233509
stp2060
Rp2061
I1
bag34
(g878
g39
(dp2062
VUserName
p2063
V@f6b3ab043d2bd8121b63deeac1e3189c7e103c8d64dc228348fc59322b91e1d2
p2064
sVRemarkPYQuanPin
p2065
g52
sVDisplayName
p2066
g52
sVKeyWord
p2067
g52
sVPYInitial
p2068
g52
sVUin
p2069
I0
sg1906
g50
sVMemberStatus
p2070
I0
sVPYQuanPin
p2071
g52
sVRemarkPYInitial
p2072
g52
sVNickName
p2073
V\u5929\u7136\u5446
p2074
sVAttrStatus
p2075
I135909
stp2076
Rp2077
I1
batp2078
Rp2079
I1
bsVAlias
p2080
g52
sg1985
NsVSignature
p2081
g52
sVContactFlag
p2082
I2
sVNickName
p2083
V\u673a\u957f:\u718a\u5353\u6210
p2084
sVChatRoomOwner
p2085
V@822baf74d5b5b6971ccdd47dad11b8442ce489965c6d0babdba4dfa6cc28653c
p2086
sVVerifyFlag
p2087
I0
sVProvince
p2088
g52
sVStatues
p2089
I1
sVHeadImgUrl
p2090
V/cgi-bin/mmwebwx-bin/webwxgetheadimg?seq=0&username=@@a8dfd170faca87890e460384629c0dd304a61221fb8a4f387fe7b374d48343ad&skey=@crypt_f18ebe9c_970944b1cd5666b9e429e75bd09969e5
p2091
sVKeyWord
p2092
g52
sVRemarkName
p2093
g52
sVSex
p2094
I0
sVContactType
p2095
I0
sVHideInputBarFlag
p2096
I0
sVAttrStatus
p2097
I0
sVHeadImgUpdateFlag
p2098
I1
stp2099
Rp2100
I1
bag34
(g870
g39
(dp2101
VUserName
p2102
V@@f10c74f0b2aafa0187ad8dff3b9e1ef6c8408e95991ffa244ee5c359948dae8a
p2103
sVCity
p2104
g52
sVSnsFlag
p2105
I0
sVMemberCount
p2106
I5
sg1897
g34
(g878
g39
(dp2107
VUserName
p2108
V@6f349e5e95aa664346ae4ba60a8ba0ce29f0f91689620d4d0efa6f881919fd99
p2109
sVRemarkPYQuanPin
p2110
g52
sVDisplayName
p2111
g52
sVKeyWord
p2112
g52
sVPYInitial
p2113
g52
sVUin
p2114
I0
sg1906
g50
sVMemberStatus
p2115
I0
sVPYQuanPin
p2116
g52
sVRemarkPYInitial
p2117
g52
sVNickName
p2118
V\u738b\u8005\u5c0f\u673a
p2119
sVAttrStatus
p2120
I234021
stp2121
Rp2122
I1
bsg1915
I0
sVMemberList
p2123
g34
(g35
g36
(lp2124
g34
(g878
g39
(dp2125
VUserName
p2126
V@822baf74d5b5b6971ccdd47dad11b8442ce489965c6d0babdba4dfa6cc28653c
p2127
sVRemarkPYQuanPin
p2128
g52
sVDisplayName
p2129
g52
sVKeyWord
p2130
g52
sVPYInitial
p2131
g52
sVUin
p2132
I0
sg1906
g50
sVMemberStatus
p2133
I0
sVPYQuanPin
p2134
g52
sVRemarkPYInitial
p2135
g52
sVNickName
p2136
V\u738b\u8005\u4e13\u673a \u7a7a\u5c116
p2137
sVAttrStatus
p2138
I233919
stp2139
Rp2140
I1
bag2122
ag34
(g878
g39
(dp2141
VUserName
p2142
V@50b66a52d45296f6c5a5fd6f76c79567df33d9fce3bd2130292c3d3dba06c53a
p2143
sVRemarkPYQuanPin
p2144
g52
sVDisplayName
p2145
g52
sVKeyWord
p2146
g52
sVPYInitial
p2147
g52
sVUin
p2148
I0
sg1906
g50
sVMemberStatus
p2149
I0
sVPYQuanPin
p2150
g52
sVRemarkPYInitial
p2151
g52
sVNickName
p2152
V\u738b\u8005\u4e13\u673a\u5ba2\u670d
p2153
sVAttrStatus
p2154
I233509
stp2155
Rp2156
I1
bag34
(g878
g39
(dp2157
VUserName
p2158
V@f6b3ab043d2bd8121b63deeac1e3189c7e103c8d64dc228348fc59322b91e1d2
p2159
sVRemarkPYQuanPin
p2160
g52
sVDisplayName
p2161
g52
sVKeyWord
p2162
g52
sVPYInitial
p2163
g52
sVUin
p2164
I0
sg1906
g50
sVMemberStatus
p2165
I0
sVPYQuanPin
p2166
g52
sVRemarkPYInitial
p2167
g52
sVNickName
p2168
V\u5929\u7136\u5446
p2169
sVAttrStatus
p2170
I135909
stp2171
Rp2172
I1
bag34
(g878
g39
(dp2173
VUserName
p2174
V@32bc893f26eb0440125de52314e057b2
p2175
sVRemarkPYQuanPin
p2176
g52
sVDisplayName
p2177
g52
sVKeyWord
p2178
g52
sVPYInitial
p2179
g52
sVUin
p2180
I0
sg1906
g50
sVMemberStatus
p2181
I0
sVPYQuanPin
p2182
g52
sVRemarkPYInitial
p2183
g52
sVNickName
p2184
V\u5c11\u5e05\U0001f48b \U0001f48b \U0001f48b
p2185
sVAttrStatus
p2186
I33658213
stp2187
Rp2188
I1
batp2189
Rp2190
I1
bsVAlias
p2191
g52
sg1985
NsVSignature
p2192
g52
sVContactFlag
p2193
I2
sVNickName
p2194
V\u673a\u957f:\u738b\u8096\u822a
p2195
sVChatRoomOwner
p2196
V@822baf74d5b5b6971ccdd47dad11b8442ce489965c6d0babdba4dfa6cc28653c
p2197
sVVerifyFlag
p2198
I0
sVProvince
p2199
g52
sVStatues
p2200
I1
sVHeadImgUrl
p2201
V/cgi-bin/mmwebwx-bin/webwxgetheadimg?seq=0&username=@@f10c74f0b2aafa0187ad8dff3b9e1ef6c8408e95991ffa244ee5c359948dae8a&skey=@crypt_f18ebe9c_970944b1cd5666b9e429e75bd09969e5
p2202
sVKeyWord
p2203
g52
sVRemarkName
p2204
g52
sVSex
p2205
I0
sVContactType
p2206
I0
sVHideInputBarFlag
p2207
I0
sVAttrStatus
p2208
I0
sVHeadImgUpdateFlag
p2209
I1
stp2210
Rp2211
I1
bag34
(g870
g39
(dp2212
VUserName
p2213
V@@71f9b371b8fbbde434b65b5e73e4a0f8b288f056229ce502342683ce5ac1938b
p2214
sVCity
p2215
g52
sVSnsFlag
p2216
I0
sVMemberCount
p2217
I4
sg1897
g34
(g878
g39
(dp2218
VUserName
p2219
V@6f349e5e95aa664346ae4ba60a8ba0ce29f0f91689620d4d0efa6f881919fd99
p2220
sVRemarkPYQuanPin
p2221
g52
sVDisplayName
p2222
g52
sVKeyWord
p2223
g52
sVPYInitial
p2224
g52
sVUin
p2225
I0
sg1906
g50
sVMemberStatus
p2226
I0
sVPYQuanPin
p2227
g52
sVRemarkPYInitial
p2228
g52
sVNickName
p2229
V\u738b\u8005\u5c0f\u673a
p2230
sVAttrStatus
p2231
I234021
stp2232
Rp2233
I1
bsg1915
I0
sVMemberList
p2234
g34
(g35
g36
(lp2235
g34
(g878
g39
(dp2236
VUserName
p2237
V@822baf74d5b5b6971ccdd47dad11b8442ce489965c6d0babdba4dfa6cc28653c
p2238
sVRemarkPYQuanPin
p2239
g52
sVDisplayName
p2240
g52
sVKeyWord
p2241
g52
sVPYInitial
p2242
g52
sVUin
p2243
I0
sg1906
g50
sVMemberStatus
p2244
I0
sVPYQuanPin
p2245
g52
sVRemarkPYInitial
p2246
g52
sVNickName
p2247
V\u738b\u8005\u4e13\u673a \u7a7a\u5c116
p2248
sVAttrStatus
p2249
I233919
stp2250
Rp2251
I1
bag2233
ag34
(g878
g39
(dp2252
VUserName
p2253
V@f6b3ab043d2bd8121b63deeac1e3189c7e103c8d64dc228348fc59322b91e1d2
p2254
sVRemarkPYQuanPin
p2255
g52
sVDisplayName
p2256
g52
sVKeyWord
p2257
g52
sVPYInitial
p2258
g52
sVUin
p2259
I0
sg1906
g50
sVMemberStatus
p2260
I0
sVPYQuanPin
p2261
g52
sVRemarkPYInitial
p2262
g52
sVNickName
p2263
V\u5929\u7136\u5446
p2264
sVAttrStatus
p2265
I135909
stp2266
Rp2267
I1
bag34
(g878
g39
(dp2268
VUserName
p2269
V@50b66a52d45296f6c5a5fd6f76c79567df33d9fce3bd2130292c3d3dba06c53a
p2270
sVRemarkPYQuanPin
p2271
g52
sVDisplayName
p2272
g52
sVKeyWord
p2273
g52
sVPYInitial
p2274
g52
sVUin
p2275
I0
sg1906
g50
sVMemberStatus
p2276
I0
sVPYQuanPin
p2277
g52
sVRemarkPYInitial
p2278
g52
sVNickName
p2279
V\u738b\u8005\u4e13\u673a\u5ba2\u670d
p2280
sVAttrStatus
p2281
I233509
stp2282
Rp2283
I1
batp2284
Rp2285
I1
bsVAlias
p2286
g52
sg1985
NsVSignature
p2287
g52
sVContactFlag
p2288
I2
sVNickName
p2289
V\u673a\u957f:\u5c11\u5e05
p2290
sVChatRoomOwner
p2291
V@822baf74d5b5b6971ccdd47dad11b8442ce489965c6d0babdba4dfa6cc28653c
p2292
sVVerifyFlag
p2293
I0
sVProvince
p2294
g52
sVStatues
p2295
I1
sVHeadImgUrl
p2296
V/cgi-bin/mmwebwx-bin/webwxgetheadimg?seq=0&username=@@71f9b371b8fbbde434b65b5e73e4a0f8b288f056229ce502342683ce5ac1938b&skey=@crypt_f18ebe9c_970944b1cd5666b9e429e75bd09969e5
p2297
sVKeyWord
p2298
g52
sVRemarkName
p2299
g52
sVSex
p2300
I0
sVContactType
p2301
I0
sVHideInputBarFlag
p2302
I0
sVAttrStatus
p2303
I0
sVHeadImgUpdateFlag
p2304
I1
stp2305
Rp2306
I1
bag34
(g870
g39
(dp2307
VUserName
p2308
V@@cbc3ee8a7b9ff523e965d02c65c554d181647a11c3cc01359be1349b73c9a661
p2309
sVCity
p2310
g52
sVSnsFlag
p2311
I0
sVMemberCount
p2312
I4
sg1897
g34
(g878
g39
(dp2313
VUserName
p2314
V@6f349e5e95aa664346ae4ba60a8ba0ce29f0f91689620d4d0efa6f881919fd99
p2315
sVRemarkPYQuanPin
p2316
g52
sVDisplayName
p2317
g52
sVKeyWord
p2318
g52
sVPYInitial
p2319
g52
sVUin
p2320
I0
sg1906
g50
sVMemberStatus
p2321
I0
sVPYQuanPin
p2322
g52
sVRemarkPYInitial
p2323
g52
sVNickName
p2324
V\u738b\u8005\u5c0f\u673a
p2325
sVAttrStatus
p2326
I234021
stp2327
Rp2328
I1
bsg1915
I0
sVMemberList
p2329
g34
(g35
g36
(lp2330
g34
(g878
g39
(dp2331
VUserName
p2332
V@822baf74d5b5b6971ccdd47dad11b8442ce489965c6d0babdba4dfa6cc28653c
p2333
sVRemarkPYQuanPin
p2334
g52
sVDisplayName
p2335
g52
sVKeyWord
p2336
g52
sVPYInitial
p2337
g52
sVUin
p2338
I0
sg1906
g50
sVMemberStatus
p2339
I0
sVPYQuanPin
p2340
g52
sVRemarkPYInitial
p2341
g52
sVNickName
p2342
V\u738b\u8005\u4e13\u673a \u7a7a\u5c116
p2343
sVAttrStatus
p2344
I233919
stp2345
Rp2346
I1
bag2328
ag34
(g878
g39
(dp2347
VUserName
p2348
V@f6b3ab043d2bd8121b63deeac1e3189c7e103c8d64dc228348fc59322b91e1d2
p2349
sVRemarkPYQuanPin
p2350
g52
sVDisplayName
p2351
g52
sVKeyWord
p2352
g52
sVPYInitial
p2353
g52
sVUin
p2354
I0
sg1906
g50
sVMemberStatus
p2355
I0
sVPYQuanPin
p2356
g52
sVRemarkPYInitial
p2357
g52
sVNickName
p2358
V\u5929\u7136\u5446
p2359
sVAttrStatus
p2360
I135909
stp2361
Rp2362
I1
bag34
(g878
g39
(dp2363
VUserName
p2364
V@50b66a52d45296f6c5a5fd6f76c79567df33d9fce3bd2130292c3d3dba06c53a
p2365
sVRemarkPYQuanPin
p2366
g52
sVDisplayName
p2367
g52
sVKeyWord
p2368
g52
sVPYInitial
p2369
g52
sVUin
p2370
I0
sg1906
g50
sVMemberStatus
p2371
I0
sVPYQuanPin
p2372
g52
sVRemarkPYInitial
p2373
g52
sVNickName
p2374
V\u738b\u8005\u4e13\u673a\u5ba2\u670d
p2375
sVAttrStatus
p2376
I233509
stp2377
Rp2378
I1
batp2379
Rp2380
I1
bsVAlias
p2381
g52
sg1985
NsVSignature
p2382
g52
sVContactFlag
p2383
I2
sVNickName
p2384
V\u673a\u957f:\u9ece\u666e\u5f3a
p2385
sVChatRoomOwner
p2386
V@822baf74d5b5b6971ccdd47dad11b8442ce489965c6d0babdba4dfa6cc28653c
p2387
sVVerifyFlag
p2388
I0
sVProvince
p2389
g52
sVStatues
p2390
I1
sVHeadImgUrl
p2391
V/cgi-bin/mmwebwx-bin/webwxgetheadimg?seq=0&username=@@cbc3ee8a7b9ff523e965d02c65c554d181647a11c3cc01359be1349b73c9a661&skey=@crypt_f18ebe9c_970944b1cd5666b9e429e75bd09969e5
p2392
sVKeyWord
p2393
g52
sVRemarkName
p2394
g52
sVSex
p2395
I0
sVContactType
p2396
I0
sVHideInputBarFlag
p2397
I0
sVAttrStatus
p2398
I0
sVHeadImgUpdateFlag
p2399
I1
stp2400
Rp2401
I1
batp2402
Rp2403
I1
bsS'nickName'
p2404
g73
sS'mpList'
p2405
g34
(g35
g36
(lp2406
tp2407
Rp2408
I1
bssS'loginInfo'
p2409
(dp2410
S'SyncKey'
p2411
(dp2412
VCount
p2413
I10
sVList
p2414
(lp2415
(dp2416
VVal
p2417
I661244371
sVKey
p2418
I1
sa(dp2419
VVal
p2420
I661244500
sVKey
p2421
I2
sa(dp2422
VVal
p2423
I661244501
sVKey
p2424
I3
sa(dp2425
VVal
p2426
I661244294
sVKey
p2427
I11
sa(dp2428
VVal
p2429
I661240001
sVKey
p2430
I13
sa(dp2431
VVal
p2432
I1503382793
sVKey
p2433
I201
sa(dp2434
VVal
p2435
I1503308921
sVKey
p2436
I203
sa(dp2437
VVal
p2438
I1503362053
sVKey
p2439
I1000
sa(dp2440
VVal
p2441
I1503363273
sVKey
p2442
I1001
sa(dp2443
VVal
p2444
I1503037832
sVKey
p2445
I1002
sassS'syncUrl'
p2446
S'https://webpush.wx.qq.com/cgi-bin/mmwebwx-bin'
p2447
sS'skey'
p2448
V@crypt_f18ebe9c_970944b1cd5666b9e429e75bd09969e5
p2449
sS'wxuin'
p2450
V547102516
p2451
sS'synckey'
p2452
S'1_661244371|2_661244500|3_661244501|11_661244294|13_661240001|201_1503382793|203_1503308921|1000_1503362053|1001_1503363273|1002_1503037832'
p2453
sS'url'
p2454
Vhttps://wx.qq.com/cgi-bin/mmwebwx-bin
p2455
sS'pass_ticket'
p2456
VzWO0iZzRUK2My9%2BYXEsS4GWQDoVLZGFyndwzA9xKzyPBMgaUuGpdjsZCOoVrfvYX
p2457
sS'wxsid'
p2458
VvQtcGA91hSDHXiPN
p2459
sS'InviteStartCount'
p2460
I40
sS'User'
p2461
g34
(g38
g39
(dp2462
g41
g31
sg42
g43
sg44
g43
sg45
I0
sg47
g50
sg51
g52
sg53
g52
sg77
I0
sg55
I0
sg56
I0
sg57
g43
sg58
g43
sg59
g52
sg60
g52
sg61
I0
sg62
I0
sg63
I1
sg64
g43
sg65
I0
sg68
I0
sg66
I0
sg67
I0
sg46
I0
sg69
g43
sg70
g52
sg71
I0
sg72
g73
sg74
g52
sg75
g76
sg54
I547102516
sg78
I0
sg79
I0
stp2463
Rp2464
I1
bsS'fileUrl'
p2465
S'https://file.wx.qq.com/cgi-bin/mmwebwx-bin'
p2466
sS'BaseRequest'
p2467
(dp2468
S'Sid'
p2469
g2459
sS'Skey'
p2470
g2449
sS'DeviceID'
p2471
g2457
sg54
g2451
ssS'deviceid'
p2472
S'e951080880114898'
p2473
ss.